
bin\Debug\LogicAnalyzer.elf:     file format elf32-avr

Sections:
Idx Name          Size      VMA       LMA       File off  Algn
  0 .data         0000005c  00800100  00001aca  00001b5e  2**0
                  CONTENTS, ALLOC, LOAD, DATA
  1 .text         00001aca  00000000  00000000  00000094  2**1
                  CONTENTS, ALLOC, LOAD, READONLY, CODE
  2 .bss          00000029  0080015c  0080015c  00001bba  2**0
                  ALLOC
  3 .comment      00000030  00000000  00000000  00001bba  2**0
                  CONTENTS, READONLY
  4 .note.gnu.avr.deviceinfo 0000003c  00000000  00000000  00001bec  2**2
                  CONTENTS, READONLY
  5 .debug_info   00000780  00000000  00000000  00001c28  2**0
                  CONTENTS, READONLY, DEBUGGING
  6 .debug_abbrev 00000718  00000000  00000000  000023a8  2**0
                  CONTENTS, READONLY, DEBUGGING
  7 .debug_line   0000001a  00000000  00000000  00002ac0  2**0
                  CONTENTS, READONLY, DEBUGGING
  8 .debug_str    0000027d  00000000  00000000  00002ada  2**0
                  CONTENTS, READONLY, DEBUGGING

Disassembly of section .text:

00000000 <__vectors>:
       0:	0c 94 46 00 	jmp	0x8c	; 0x8c <__ctors_end>
       4:	0c 94 65 00 	jmp	0xca	; 0xca <__bad_interrupt>
       8:	0c 94 65 00 	jmp	0xca	; 0xca <__bad_interrupt>
       c:	0c 94 65 00 	jmp	0xca	; 0xca <__bad_interrupt>
      10:	0c 94 65 00 	jmp	0xca	; 0xca <__bad_interrupt>
      14:	0c 94 65 00 	jmp	0xca	; 0xca <__bad_interrupt>
      18:	0c 94 65 00 	jmp	0xca	; 0xca <__bad_interrupt>
      1c:	0c 94 65 00 	jmp	0xca	; 0xca <__bad_interrupt>
      20:	0c 94 65 00 	jmp	0xca	; 0xca <__bad_interrupt>
      24:	0c 94 6f 02 	jmp	0x4de	; 0x4de <__vector_9>
      28:	0c 94 44 02 	jmp	0x488	; 0x488 <__vector_10>
      2c:	0c 94 19 02 	jmp	0x432	; 0x432 <__vector_11>
      30:	0c 94 98 01 	jmp	0x330	; 0x330 <__vector_12>
      34:	0c 94 c3 01 	jmp	0x386	; 0x386 <__vector_13>
      38:	0c 94 6d 01 	jmp	0x2da	; 0x2da <__vector_14>
      3c:	0c 94 42 01 	jmp	0x284	; 0x284 <__vector_15>
      40:	0c 94 17 01 	jmp	0x22e	; 0x22e <__vector_16>
      44:	0c 94 65 00 	jmp	0xca	; 0xca <__bad_interrupt>
      48:	0c 94 d9 08 	jmp	0x11b2	; 0x11b2 <__vector_18>
      4c:	0c 94 65 00 	jmp	0xca	; 0xca <__bad_interrupt>
      50:	0c 94 65 00 	jmp	0xca	; 0xca <__bad_interrupt>
      54:	0c 94 67 00 	jmp	0xce	; 0xce <__vector_21>
      58:	0c 94 65 00 	jmp	0xca	; 0xca <__bad_interrupt>
      5c:	0c 94 65 00 	jmp	0xca	; 0xca <__bad_interrupt>
      60:	0c 94 ee 01 	jmp	0x3dc	; 0x3dc <__vector_24>
      64:	0c 94 46 03 	jmp	0x68c	; 0x68c <__vector_25>
      68:	0c 94 c5 02 	jmp	0x58a	; 0x58a <__vector_26>
      6c:	0c 94 f0 02 	jmp	0x5e0	; 0x5e0 <__vector_27>
      70:	0c 94 1b 03 	jmp	0x636	; 0x636 <__vector_28>
      74:	0c 94 9a 02 	jmp	0x534	; 0x534 <__vector_29>
      78:	0c 94 05 09 	jmp	0x120a	; 0x120a <__vector_30>
      7c:	0c 94 65 00 	jmp	0xca	; 0xca <__bad_interrupt>
      80:	0c 94 65 00 	jmp	0xca	; 0xca <__bad_interrupt>
      84:	0c 94 65 00 	jmp	0xca	; 0xca <__bad_interrupt>
      88:	0c 94 65 00 	jmp	0xca	; 0xca <__bad_interrupt>

0000008c <__ctors_end>:
      8c:	11 24       	eor	r1, r1
      8e:	1f be       	out	0x3f, r1	; 63
      90:	cf ef       	ldi	r28, 0xFF	; 255
      92:	d0 e1       	ldi	r29, 0x10	; 16
      94:	de bf       	out	0x3e, r29	; 62
      96:	cd bf       	out	0x3d, r28	; 61

00000098 <__do_copy_data>:
      98:	11 e0       	ldi	r17, 0x01	; 1
      9a:	a0 e0       	ldi	r26, 0x00	; 0
      9c:	b1 e0       	ldi	r27, 0x01	; 1
      9e:	ea ec       	ldi	r30, 0xCA	; 202
      a0:	fa e1       	ldi	r31, 0x1A	; 26
      a2:	00 e0       	ldi	r16, 0x00	; 0
      a4:	0b bf       	out	0x3b, r16	; 59
      a6:	02 c0       	rjmp	.+4      	; 0xac <__do_copy_data+0x14>
      a8:	07 90       	elpm	r0, Z+
      aa:	0d 92       	st	X+, r0
      ac:	ac 35       	cpi	r26, 0x5C	; 92
      ae:	b1 07       	cpc	r27, r17
      b0:	d9 f7       	brne	.-10     	; 0xa8 <__do_copy_data+0x10>

000000b2 <__do_clear_bss>:
      b2:	21 e0       	ldi	r18, 0x01	; 1
      b4:	ac e5       	ldi	r26, 0x5C	; 92
      b6:	b1 e0       	ldi	r27, 0x01	; 1
      b8:	01 c0       	rjmp	.+2      	; 0xbc <.do_clear_bss_start>

000000ba <.do_clear_bss_loop>:
      ba:	1d 92       	st	X+, r1

000000bc <.do_clear_bss_start>:
      bc:	a5 38       	cpi	r26, 0x85	; 133
      be:	b2 07       	cpc	r27, r18
      c0:	e1 f7       	brne	.-8      	; 0xba <.do_clear_bss_loop>
      c2:	0e 94 b0 0b 	call	0x1760	; 0x1760 <main>
      c6:	0c 94 63 0d 	jmp	0x1ac6	; 0x1ac6 <_exit>

000000ca <__bad_interrupt>:
      ca:	0c 94 00 00 	jmp	0	; 0x0 <__vectors>

000000ce <__vector_21>:
      ce:	1f 92       	push	r1
      d0:	0f 92       	push	r0
      d2:	0f b6       	in	r0, 0x3f	; 63
      d4:	0f 92       	push	r0
      d6:	11 24       	eor	r1, r1
      d8:	0b b6       	in	r0, 0x3b	; 59
      da:	0f 92       	push	r0
      dc:	2f 93       	push	r18
      de:	3f 93       	push	r19
      e0:	4f 93       	push	r20
      e2:	5f 93       	push	r21
      e4:	6f 93       	push	r22
      e6:	7f 93       	push	r23
      e8:	8f 93       	push	r24
      ea:	9f 93       	push	r25
      ec:	af 93       	push	r26
      ee:	bf 93       	push	r27
      f0:	ef 93       	push	r30
      f2:	ff 93       	push	r31
      f4:	84 b1       	in	r24, 0x04	; 4
      f6:	25 b1       	in	r18, 0x05	; 5
      f8:	90 e0       	ldi	r25, 0x00	; 0
      fa:	e0 91 5c 01 	lds	r30, 0x015C	; 0x80015c <__data_end>
      fe:	f0 91 5d 01 	lds	r31, 0x015D	; 0x80015d <__data_end+0x1>
     102:	92 2b       	or	r25, r18
     104:	09 95       	icall
     106:	ff 91       	pop	r31
     108:	ef 91       	pop	r30
     10a:	bf 91       	pop	r27
     10c:	af 91       	pop	r26
     10e:	9f 91       	pop	r25
     110:	8f 91       	pop	r24
     112:	7f 91       	pop	r23
     114:	6f 91       	pop	r22
     116:	5f 91       	pop	r21
     118:	4f 91       	pop	r20
     11a:	3f 91       	pop	r19
     11c:	2f 91       	pop	r18
     11e:	0f 90       	pop	r0
     120:	0b be       	out	0x3b, r0	; 59
     122:	0f 90       	pop	r0
     124:	0f be       	out	0x3f, r0	; 63
     126:	0f 90       	pop	r0
     128:	1f 90       	pop	r1
     12a:	18 95       	reti

0000012c <Adc0_Init>:
     12c:	97 b1       	in	r25, 0x07	; 7
     12e:	28 2f       	mov	r18, r24
     130:	22 95       	swap	r18
     132:	22 0f       	add	r18, r18
     134:	22 0f       	add	r18, r18
     136:	20 7c       	andi	r18, 0xC0	; 192
     138:	9f 73       	andi	r25, 0x3F	; 63
     13a:	92 2b       	or	r25, r18
     13c:	97 b9       	out	0x07, r25	; 7
     13e:	96 b1       	in	r25, 0x06	; 6
     140:	28 2f       	mov	r18, r24
     142:	22 95       	swap	r18
     144:	27 70       	andi	r18, 0x07	; 7
     146:	98 7f       	andi	r25, 0xF8	; 248
     148:	92 2b       	or	r25, r18
     14a:	96 b9       	out	0x06, r25	; 6
     14c:	37 9a       	sbi	0x06, 7	; 6
     14e:	82 ff       	sbrs	r24, 2
     150:	03 c0       	rjmp	.+6      	; 0x158 <Adc0_Init+0x2c>
     152:	35 9a       	sbi	0x06, 5	; 6
     154:	36 9a       	sbi	0x06, 6	; 6
     156:	08 95       	ret
     158:	35 98       	cbi	0x06, 5	; 6
     15a:	08 95       	ret

0000015c <Adc0_SetChannel>:
     15c:	97 b1       	in	r25, 0x07	; 7
     15e:	8f 71       	andi	r24, 0x1F	; 31
     160:	90 7e       	andi	r25, 0xE0	; 224
     162:	89 2b       	or	r24, r25
     164:	87 b9       	out	0x07, r24	; 7
     166:	08 95       	ret

00000168 <Adc0_CbConvComp>:
     168:	33 98       	cbi	0x06, 3	; 6
     16a:	90 93 5d 01 	sts	0x015D, r25	; 0x80015d <__data_end+0x1>
     16e:	80 93 5c 01 	sts	0x015C, r24	; 0x80015c <__data_end>
     172:	89 2b       	or	r24, r25
     174:	11 f0       	breq	.+4      	; 0x17a <Adc0_CbConvComp+0x12>
     176:	33 9a       	sbi	0x06, 3	; 6
     178:	78 94       	sei
     17a:	08 95       	ret

0000017c <Adc0_Read>:
     17c:	35 9b       	sbis	0x06, 5	; 6
     17e:	03 c0       	rjmp	.+6      	; 0x186 <Adc0_Read+0xa>
     180:	84 b1       	in	r24, 0x04	; 4
     182:	95 b1       	in	r25, 0x05	; 5
     184:	08 95       	ret
     186:	36 9a       	sbi	0x06, 6	; 6
     188:	36 99       	sbic	0x06, 6	; 6
     18a:	fe cf       	rjmp	.-4      	; 0x188 <Adc0_Read+0xc>
     18c:	f9 cf       	rjmp	.-14     	; 0x180 <Adc0_Read+0x4>

0000018e <Gpio_Init>:
     18e:	cf 93       	push	r28
     190:	df 93       	push	r29
     192:	cd b7       	in	r28, 0x3d	; 61
     194:	de b7       	in	r29, 0x3e	; 62
     196:	6c 97       	sbiw	r28, 0x1c	; 28
     198:	0f b6       	in	r0, 0x3f	; 63
     19a:	f8 94       	cli
     19c:	de bf       	out	0x3e, r29	; 62
     19e:	0f be       	out	0x3f, r0	; 63
     1a0:	cd bf       	out	0x3d, r28	; 61
     1a2:	9e e0       	ldi	r25, 0x0E	; 14
     1a4:	e0 e0       	ldi	r30, 0x00	; 0
     1a6:	f1 e0       	ldi	r31, 0x01	; 1
     1a8:	de 01       	movw	r26, r28
     1aa:	1f 96       	adiw	r26, 0x0f	; 15
     1ac:	01 90       	ld	r0, Z+
     1ae:	0d 92       	st	X+, r0
     1b0:	9a 95       	dec	r25
     1b2:	e1 f7       	brne	.-8      	; 0x1ac <Gpio_Init+0x1e>
     1b4:	9e e0       	ldi	r25, 0x0E	; 14
     1b6:	ee e0       	ldi	r30, 0x0E	; 14
     1b8:	f1 e0       	ldi	r31, 0x01	; 1
     1ba:	de 01       	movw	r26, r28
     1bc:	11 96       	adiw	r26, 0x01	; 1
     1be:	01 90       	ld	r0, Z+
     1c0:	0d 92       	st	X+, r0
     1c2:	9a 95       	dec	r25
     1c4:	e1 f7       	brne	.-8      	; 0x1be <Gpio_Init+0x30>
     1c6:	87 30       	cpi	r24, 0x07	; 7
     1c8:	18 f5       	brcc	.+70     	; 0x210 <Gpio_Init+0x82>
     1ca:	e8 2f       	mov	r30, r24
     1cc:	f0 e0       	ldi	r31, 0x00	; 0
     1ce:	ee 0f       	add	r30, r30
     1d0:	ff 1f       	adc	r31, r31
     1d2:	81 e0       	ldi	r24, 0x01	; 1
     1d4:	90 e0       	ldi	r25, 0x00	; 0
     1d6:	8c 0f       	add	r24, r28
     1d8:	9d 1f       	adc	r25, r29
     1da:	e8 0f       	add	r30, r24
     1dc:	f9 1f       	adc	r31, r25
     1de:	41 ff       	sbrs	r20, 1
     1e0:	04 c0       	rjmp	.+8      	; 0x1ea <Gpio_Init+0x5c>
     1e2:	06 84       	ldd	r0, Z+14	; 0x0e
     1e4:	f7 85       	ldd	r31, Z+15	; 0x0f
     1e6:	e0 2d       	mov	r30, r0
     1e8:	0c c0       	rjmp	.+24     	; 0x202 <Gpio_Init+0x74>
     1ea:	a6 85       	ldd	r26, Z+14	; 0x0e
     1ec:	b7 85       	ldd	r27, Z+15	; 0x0f
     1ee:	9c 91       	ld	r25, X
     1f0:	86 2f       	mov	r24, r22
     1f2:	80 95       	com	r24
     1f4:	98 23       	and	r25, r24
     1f6:	9c 93       	st	X, r25
     1f8:	01 90       	ld	r0, Z+
     1fa:	f0 81       	ld	r31, Z
     1fc:	e0 2d       	mov	r30, r0
     1fe:	43 ff       	sbrs	r20, 3
     200:	04 c0       	rjmp	.+8      	; 0x20a <Gpio_Init+0x7c>
     202:	80 81       	ld	r24, Z
     204:	68 2b       	or	r22, r24
     206:	60 83       	st	Z, r22
     208:	03 c0       	rjmp	.+6      	; 0x210 <Gpio_Init+0x82>
     20a:	90 81       	ld	r25, Z
     20c:	89 23       	and	r24, r25
     20e:	80 83       	st	Z, r24
     210:	6c 96       	adiw	r28, 0x1c	; 28
     212:	0f b6       	in	r0, 0x3f	; 63
     214:	f8 94       	cli
     216:	de bf       	out	0x3e, r29	; 62
     218:	0f be       	out	0x3f, r0	; 63
     21a:	cd bf       	out	0x3d, r28	; 61
     21c:	df 91       	pop	r29
     21e:	cf 91       	pop	r28
     220:	08 95       	ret

00000222 <Gpio_InitTimer0>:
     222:	08 95       	ret

00000224 <Gpio_InitTimer1>:
     224:	08 95       	ret

00000226 <Gpio_InitTimer2>:
     226:	08 95       	ret

00000228 <Gpio_InitTimer3>:
     228:	08 95       	ret

0000022a <Gpio_InitSpi0>:
     22a:	08 95       	ret

0000022c <Gpio_InitAdc0>:
     22c:	08 95       	ret

0000022e <__vector_16>:
     22e:	1f 92       	push	r1
     230:	0f 92       	push	r0
     232:	0f b6       	in	r0, 0x3f	; 63
     234:	0f 92       	push	r0
     236:	11 24       	eor	r1, r1
     238:	0b b6       	in	r0, 0x3b	; 59
     23a:	0f 92       	push	r0
     23c:	2f 93       	push	r18
     23e:	3f 93       	push	r19
     240:	4f 93       	push	r20
     242:	5f 93       	push	r21
     244:	6f 93       	push	r22
     246:	7f 93       	push	r23
     248:	8f 93       	push	r24
     24a:	9f 93       	push	r25
     24c:	af 93       	push	r26
     24e:	bf 93       	push	r27
     250:	ef 93       	push	r30
     252:	ff 93       	push	r31
     254:	e0 91 7a 01 	lds	r30, 0x017A	; 0x80017a <_Timer0_OVF_ISR>
     258:	f0 91 7b 01 	lds	r31, 0x017B	; 0x80017b <_Timer0_OVF_ISR+0x1>
     25c:	09 95       	icall
     25e:	ff 91       	pop	r31
     260:	ef 91       	pop	r30
     262:	bf 91       	pop	r27
     264:	af 91       	pop	r26
     266:	9f 91       	pop	r25
     268:	8f 91       	pop	r24
     26a:	7f 91       	pop	r23
     26c:	6f 91       	pop	r22
     26e:	5f 91       	pop	r21
     270:	4f 91       	pop	r20
     272:	3f 91       	pop	r19
     274:	2f 91       	pop	r18
     276:	0f 90       	pop	r0
     278:	0b be       	out	0x3b, r0	; 59
     27a:	0f 90       	pop	r0
     27c:	0f be       	out	0x3f, r0	; 63
     27e:	0f 90       	pop	r0
     280:	1f 90       	pop	r1
     282:	18 95       	reti

00000284 <__vector_15>:
     284:	1f 92       	push	r1
     286:	0f 92       	push	r0
     288:	0f b6       	in	r0, 0x3f	; 63
     28a:	0f 92       	push	r0
     28c:	11 24       	eor	r1, r1
     28e:	0b b6       	in	r0, 0x3b	; 59
     290:	0f 92       	push	r0
     292:	2f 93       	push	r18
     294:	3f 93       	push	r19
     296:	4f 93       	push	r20
     298:	5f 93       	push	r21
     29a:	6f 93       	push	r22
     29c:	7f 93       	push	r23
     29e:	8f 93       	push	r24
     2a0:	9f 93       	push	r25
     2a2:	af 93       	push	r26
     2a4:	bf 93       	push	r27
     2a6:	ef 93       	push	r30
     2a8:	ff 93       	push	r31
     2aa:	e0 91 7c 01 	lds	r30, 0x017C	; 0x80017c <_Timer0_CMP_ISR>
     2ae:	f0 91 7d 01 	lds	r31, 0x017D	; 0x80017d <_Timer0_CMP_ISR+0x1>
     2b2:	09 95       	icall
     2b4:	ff 91       	pop	r31
     2b6:	ef 91       	pop	r30
     2b8:	bf 91       	pop	r27
     2ba:	af 91       	pop	r26
     2bc:	9f 91       	pop	r25
     2be:	8f 91       	pop	r24
     2c0:	7f 91       	pop	r23
     2c2:	6f 91       	pop	r22
     2c4:	5f 91       	pop	r21
     2c6:	4f 91       	pop	r20
     2c8:	3f 91       	pop	r19
     2ca:	2f 91       	pop	r18
     2cc:	0f 90       	pop	r0
     2ce:	0b be       	out	0x3b, r0	; 59
     2d0:	0f 90       	pop	r0
     2d2:	0f be       	out	0x3f, r0	; 63
     2d4:	0f 90       	pop	r0
     2d6:	1f 90       	pop	r1
     2d8:	18 95       	reti

000002da <__vector_14>:
     2da:	1f 92       	push	r1
     2dc:	0f 92       	push	r0
     2de:	0f b6       	in	r0, 0x3f	; 63
     2e0:	0f 92       	push	r0
     2e2:	11 24       	eor	r1, r1
     2e4:	0b b6       	in	r0, 0x3b	; 59
     2e6:	0f 92       	push	r0
     2e8:	2f 93       	push	r18
     2ea:	3f 93       	push	r19
     2ec:	4f 93       	push	r20
     2ee:	5f 93       	push	r21
     2f0:	6f 93       	push	r22
     2f2:	7f 93       	push	r23
     2f4:	8f 93       	push	r24
     2f6:	9f 93       	push	r25
     2f8:	af 93       	push	r26
     2fa:	bf 93       	push	r27
     2fc:	ef 93       	push	r30
     2fe:	ff 93       	push	r31
     300:	e0 91 78 01 	lds	r30, 0x0178	; 0x800178 <_Timer1_OVF_ISR>
     304:	f0 91 79 01 	lds	r31, 0x0179	; 0x800179 <_Timer1_OVF_ISR+0x1>
     308:	09 95       	icall
     30a:	ff 91       	pop	r31
     30c:	ef 91       	pop	r30
     30e:	bf 91       	pop	r27
     310:	af 91       	pop	r26
     312:	9f 91       	pop	r25
     314:	8f 91       	pop	r24
     316:	7f 91       	pop	r23
     318:	6f 91       	pop	r22
     31a:	5f 91       	pop	r21
     31c:	4f 91       	pop	r20
     31e:	3f 91       	pop	r19
     320:	2f 91       	pop	r18
     322:	0f 90       	pop	r0
     324:	0b be       	out	0x3b, r0	; 59
     326:	0f 90       	pop	r0
     328:	0f be       	out	0x3f, r0	; 63
     32a:	0f 90       	pop	r0
     32c:	1f 90       	pop	r1
     32e:	18 95       	reti

00000330 <__vector_12>:
     330:	1f 92       	push	r1
     332:	0f 92       	push	r0
     334:	0f b6       	in	r0, 0x3f	; 63
     336:	0f 92       	push	r0
     338:	11 24       	eor	r1, r1
     33a:	0b b6       	in	r0, 0x3b	; 59
     33c:	0f 92       	push	r0
     33e:	2f 93       	push	r18
     340:	3f 93       	push	r19
     342:	4f 93       	push	r20
     344:	5f 93       	push	r21
     346:	6f 93       	push	r22
     348:	7f 93       	push	r23
     34a:	8f 93       	push	r24
     34c:	9f 93       	push	r25
     34e:	af 93       	push	r26
     350:	bf 93       	push	r27
     352:	ef 93       	push	r30
     354:	ff 93       	push	r31
     356:	e0 91 76 01 	lds	r30, 0x0176	; 0x800176 <_Timer1_CMPA_ISR>
     35a:	f0 91 77 01 	lds	r31, 0x0177	; 0x800177 <_Timer1_CMPA_ISR+0x1>
     35e:	09 95       	icall
     360:	ff 91       	pop	r31
     362:	ef 91       	pop	r30
     364:	bf 91       	pop	r27
     366:	af 91       	pop	r26
     368:	9f 91       	pop	r25
     36a:	8f 91       	pop	r24
     36c:	7f 91       	pop	r23
     36e:	6f 91       	pop	r22
     370:	5f 91       	pop	r21
     372:	4f 91       	pop	r20
     374:	3f 91       	pop	r19
     376:	2f 91       	pop	r18
     378:	0f 90       	pop	r0
     37a:	0b be       	out	0x3b, r0	; 59
     37c:	0f 90       	pop	r0
     37e:	0f be       	out	0x3f, r0	; 63
     380:	0f 90       	pop	r0
     382:	1f 90       	pop	r1
     384:	18 95       	reti

00000386 <__vector_13>:
     386:	1f 92       	push	r1
     388:	0f 92       	push	r0
     38a:	0f b6       	in	r0, 0x3f	; 63
     38c:	0f 92       	push	r0
     38e:	11 24       	eor	r1, r1
     390:	0b b6       	in	r0, 0x3b	; 59
     392:	0f 92       	push	r0
     394:	2f 93       	push	r18
     396:	3f 93       	push	r19
     398:	4f 93       	push	r20
     39a:	5f 93       	push	r21
     39c:	6f 93       	push	r22
     39e:	7f 93       	push	r23
     3a0:	8f 93       	push	r24
     3a2:	9f 93       	push	r25
     3a4:	af 93       	push	r26
     3a6:	bf 93       	push	r27
     3a8:	ef 93       	push	r30
     3aa:	ff 93       	push	r31
     3ac:	e0 91 74 01 	lds	r30, 0x0174	; 0x800174 <_Timer1_CMPB_ISR>
     3b0:	f0 91 75 01 	lds	r31, 0x0175	; 0x800175 <_Timer1_CMPB_ISR+0x1>
     3b4:	09 95       	icall
     3b6:	ff 91       	pop	r31
     3b8:	ef 91       	pop	r30
     3ba:	bf 91       	pop	r27
     3bc:	af 91       	pop	r26
     3be:	9f 91       	pop	r25
     3c0:	8f 91       	pop	r24
     3c2:	7f 91       	pop	r23
     3c4:	6f 91       	pop	r22
     3c6:	5f 91       	pop	r21
     3c8:	4f 91       	pop	r20
     3ca:	3f 91       	pop	r19
     3cc:	2f 91       	pop	r18
     3ce:	0f 90       	pop	r0
     3d0:	0b be       	out	0x3b, r0	; 59
     3d2:	0f 90       	pop	r0
     3d4:	0f be       	out	0x3f, r0	; 63
     3d6:	0f 90       	pop	r0
     3d8:	1f 90       	pop	r1
     3da:	18 95       	reti

000003dc <__vector_24>:
     3dc:	1f 92       	push	r1
     3de:	0f 92       	push	r0
     3e0:	0f b6       	in	r0, 0x3f	; 63
     3e2:	0f 92       	push	r0
     3e4:	11 24       	eor	r1, r1
     3e6:	0b b6       	in	r0, 0x3b	; 59
     3e8:	0f 92       	push	r0
     3ea:	2f 93       	push	r18
     3ec:	3f 93       	push	r19
     3ee:	4f 93       	push	r20
     3f0:	5f 93       	push	r21
     3f2:	6f 93       	push	r22
     3f4:	7f 93       	push	r23
     3f6:	8f 93       	push	r24
     3f8:	9f 93       	push	r25
     3fa:	af 93       	push	r26
     3fc:	bf 93       	push	r27
     3fe:	ef 93       	push	r30
     400:	ff 93       	push	r31
     402:	e0 91 72 01 	lds	r30, 0x0172	; 0x800172 <_Timer1_CMPC_ISR>
     406:	f0 91 73 01 	lds	r31, 0x0173	; 0x800173 <_Timer1_CMPC_ISR+0x1>
     40a:	09 95       	icall
     40c:	ff 91       	pop	r31
     40e:	ef 91       	pop	r30
     410:	bf 91       	pop	r27
     412:	af 91       	pop	r26
     414:	9f 91       	pop	r25
     416:	8f 91       	pop	r24
     418:	7f 91       	pop	r23
     41a:	6f 91       	pop	r22
     41c:	5f 91       	pop	r21
     41e:	4f 91       	pop	r20
     420:	3f 91       	pop	r19
     422:	2f 91       	pop	r18
     424:	0f 90       	pop	r0
     426:	0b be       	out	0x3b, r0	; 59
     428:	0f 90       	pop	r0
     42a:	0f be       	out	0x3f, r0	; 63
     42c:	0f 90       	pop	r0
     42e:	1f 90       	pop	r1
     430:	18 95       	reti

00000432 <__vector_11>:
     432:	1f 92       	push	r1
     434:	0f 92       	push	r0
     436:	0f b6       	in	r0, 0x3f	; 63
     438:	0f 92       	push	r0
     43a:	11 24       	eor	r1, r1
     43c:	0b b6       	in	r0, 0x3b	; 59
     43e:	0f 92       	push	r0
     440:	2f 93       	push	r18
     442:	3f 93       	push	r19
     444:	4f 93       	push	r20
     446:	5f 93       	push	r21
     448:	6f 93       	push	r22
     44a:	7f 93       	push	r23
     44c:	8f 93       	push	r24
     44e:	9f 93       	push	r25
     450:	af 93       	push	r26
     452:	bf 93       	push	r27
     454:	ef 93       	push	r30
     456:	ff 93       	push	r31
     458:	e0 91 70 01 	lds	r30, 0x0170	; 0x800170 <_Timer1_CPT_ISR>
     45c:	f0 91 71 01 	lds	r31, 0x0171	; 0x800171 <_Timer1_CPT_ISR+0x1>
     460:	09 95       	icall
     462:	ff 91       	pop	r31
     464:	ef 91       	pop	r30
     466:	bf 91       	pop	r27
     468:	af 91       	pop	r26
     46a:	9f 91       	pop	r25
     46c:	8f 91       	pop	r24
     46e:	7f 91       	pop	r23
     470:	6f 91       	pop	r22
     472:	5f 91       	pop	r21
     474:	4f 91       	pop	r20
     476:	3f 91       	pop	r19
     478:	2f 91       	pop	r18
     47a:	0f 90       	pop	r0
     47c:	0b be       	out	0x3b, r0	; 59
     47e:	0f 90       	pop	r0
     480:	0f be       	out	0x3f, r0	; 63
     482:	0f 90       	pop	r0
     484:	1f 90       	pop	r1
     486:	18 95       	reti

00000488 <__vector_10>:
     488:	1f 92       	push	r1
     48a:	0f 92       	push	r0
     48c:	0f b6       	in	r0, 0x3f	; 63
     48e:	0f 92       	push	r0
     490:	11 24       	eor	r1, r1
     492:	0b b6       	in	r0, 0x3b	; 59
     494:	0f 92       	push	r0
     496:	2f 93       	push	r18
     498:	3f 93       	push	r19
     49a:	4f 93       	push	r20
     49c:	5f 93       	push	r21
     49e:	6f 93       	push	r22
     4a0:	7f 93       	push	r23
     4a2:	8f 93       	push	r24
     4a4:	9f 93       	push	r25
     4a6:	af 93       	push	r26
     4a8:	bf 93       	push	r27
     4aa:	ef 93       	push	r30
     4ac:	ff 93       	push	r31
     4ae:	e0 91 6c 01 	lds	r30, 0x016C	; 0x80016c <_Timer2_OVF_ISR>
     4b2:	f0 91 6d 01 	lds	r31, 0x016D	; 0x80016d <_Timer2_OVF_ISR+0x1>
     4b6:	09 95       	icall
     4b8:	ff 91       	pop	r31
     4ba:	ef 91       	pop	r30
     4bc:	bf 91       	pop	r27
     4be:	af 91       	pop	r26
     4c0:	9f 91       	pop	r25
     4c2:	8f 91       	pop	r24
     4c4:	7f 91       	pop	r23
     4c6:	6f 91       	pop	r22
     4c8:	5f 91       	pop	r21
     4ca:	4f 91       	pop	r20
     4cc:	3f 91       	pop	r19
     4ce:	2f 91       	pop	r18
     4d0:	0f 90       	pop	r0
     4d2:	0b be       	out	0x3b, r0	; 59
     4d4:	0f 90       	pop	r0
     4d6:	0f be       	out	0x3f, r0	; 63
     4d8:	0f 90       	pop	r0
     4da:	1f 90       	pop	r1
     4dc:	18 95       	reti

000004de <__vector_9>:
     4de:	1f 92       	push	r1
     4e0:	0f 92       	push	r0
     4e2:	0f b6       	in	r0, 0x3f	; 63
     4e4:	0f 92       	push	r0
     4e6:	11 24       	eor	r1, r1
     4e8:	0b b6       	in	r0, 0x3b	; 59
     4ea:	0f 92       	push	r0
     4ec:	2f 93       	push	r18
     4ee:	3f 93       	push	r19
     4f0:	4f 93       	push	r20
     4f2:	5f 93       	push	r21
     4f4:	6f 93       	push	r22
     4f6:	7f 93       	push	r23
     4f8:	8f 93       	push	r24
     4fa:	9f 93       	push	r25
     4fc:	af 93       	push	r26
     4fe:	bf 93       	push	r27
     500:	ef 93       	push	r30
     502:	ff 93       	push	r31
     504:	e0 91 6e 01 	lds	r30, 0x016E	; 0x80016e <_Timer2_CMP_ISR>
     508:	f0 91 6f 01 	lds	r31, 0x016F	; 0x80016f <_Timer2_CMP_ISR+0x1>
     50c:	09 95       	icall
     50e:	ff 91       	pop	r31
     510:	ef 91       	pop	r30
     512:	bf 91       	pop	r27
     514:	af 91       	pop	r26
     516:	9f 91       	pop	r25
     518:	8f 91       	pop	r24
     51a:	7f 91       	pop	r23
     51c:	6f 91       	pop	r22
     51e:	5f 91       	pop	r21
     520:	4f 91       	pop	r20
     522:	3f 91       	pop	r19
     524:	2f 91       	pop	r18
     526:	0f 90       	pop	r0
     528:	0b be       	out	0x3b, r0	; 59
     52a:	0f 90       	pop	r0
     52c:	0f be       	out	0x3f, r0	; 63
     52e:	0f 90       	pop	r0
     530:	1f 90       	pop	r1
     532:	18 95       	reti

00000534 <__vector_29>:
     534:	1f 92       	push	r1
     536:	0f 92       	push	r0
     538:	0f b6       	in	r0, 0x3f	; 63
     53a:	0f 92       	push	r0
     53c:	11 24       	eor	r1, r1
     53e:	0b b6       	in	r0, 0x3b	; 59
     540:	0f 92       	push	r0
     542:	2f 93       	push	r18
     544:	3f 93       	push	r19
     546:	4f 93       	push	r20
     548:	5f 93       	push	r21
     54a:	6f 93       	push	r22
     54c:	7f 93       	push	r23
     54e:	8f 93       	push	r24
     550:	9f 93       	push	r25
     552:	af 93       	push	r26
     554:	bf 93       	push	r27
     556:	ef 93       	push	r30
     558:	ff 93       	push	r31
     55a:	e0 91 6a 01 	lds	r30, 0x016A	; 0x80016a <_Timer3_OVF_ISR>
     55e:	f0 91 6b 01 	lds	r31, 0x016B	; 0x80016b <_Timer3_OVF_ISR+0x1>
     562:	09 95       	icall
     564:	ff 91       	pop	r31
     566:	ef 91       	pop	r30
     568:	bf 91       	pop	r27
     56a:	af 91       	pop	r26
     56c:	9f 91       	pop	r25
     56e:	8f 91       	pop	r24
     570:	7f 91       	pop	r23
     572:	6f 91       	pop	r22
     574:	5f 91       	pop	r21
     576:	4f 91       	pop	r20
     578:	3f 91       	pop	r19
     57a:	2f 91       	pop	r18
     57c:	0f 90       	pop	r0
     57e:	0b be       	out	0x3b, r0	; 59
     580:	0f 90       	pop	r0
     582:	0f be       	out	0x3f, r0	; 63
     584:	0f 90       	pop	r0
     586:	1f 90       	pop	r1
     588:	18 95       	reti

0000058a <__vector_26>:
     58a:	1f 92       	push	r1
     58c:	0f 92       	push	r0
     58e:	0f b6       	in	r0, 0x3f	; 63
     590:	0f 92       	push	r0
     592:	11 24       	eor	r1, r1
     594:	0b b6       	in	r0, 0x3b	; 59
     596:	0f 92       	push	r0
     598:	2f 93       	push	r18
     59a:	3f 93       	push	r19
     59c:	4f 93       	push	r20
     59e:	5f 93       	push	r21
     5a0:	6f 93       	push	r22
     5a2:	7f 93       	push	r23
     5a4:	8f 93       	push	r24
     5a6:	9f 93       	push	r25
     5a8:	af 93       	push	r26
     5aa:	bf 93       	push	r27
     5ac:	ef 93       	push	r30
     5ae:	ff 93       	push	r31
     5b0:	e0 91 68 01 	lds	r30, 0x0168	; 0x800168 <_Timer3_CMPA_ISR>
     5b4:	f0 91 69 01 	lds	r31, 0x0169	; 0x800169 <_Timer3_CMPA_ISR+0x1>
     5b8:	09 95       	icall
     5ba:	ff 91       	pop	r31
     5bc:	ef 91       	pop	r30
     5be:	bf 91       	pop	r27
     5c0:	af 91       	pop	r26
     5c2:	9f 91       	pop	r25
     5c4:	8f 91       	pop	r24
     5c6:	7f 91       	pop	r23
     5c8:	6f 91       	pop	r22
     5ca:	5f 91       	pop	r21
     5cc:	4f 91       	pop	r20
     5ce:	3f 91       	pop	r19
     5d0:	2f 91       	pop	r18
     5d2:	0f 90       	pop	r0
     5d4:	0b be       	out	0x3b, r0	; 59
     5d6:	0f 90       	pop	r0
     5d8:	0f be       	out	0x3f, r0	; 63
     5da:	0f 90       	pop	r0
     5dc:	1f 90       	pop	r1
     5de:	18 95       	reti

000005e0 <__vector_27>:
     5e0:	1f 92       	push	r1
     5e2:	0f 92       	push	r0
     5e4:	0f b6       	in	r0, 0x3f	; 63
     5e6:	0f 92       	push	r0
     5e8:	11 24       	eor	r1, r1
     5ea:	0b b6       	in	r0, 0x3b	; 59
     5ec:	0f 92       	push	r0
     5ee:	2f 93       	push	r18
     5f0:	3f 93       	push	r19
     5f2:	4f 93       	push	r20
     5f4:	5f 93       	push	r21
     5f6:	6f 93       	push	r22
     5f8:	7f 93       	push	r23
     5fa:	8f 93       	push	r24
     5fc:	9f 93       	push	r25
     5fe:	af 93       	push	r26
     600:	bf 93       	push	r27
     602:	ef 93       	push	r30
     604:	ff 93       	push	r31
     606:	e0 91 66 01 	lds	r30, 0x0166	; 0x800166 <_Timer3_CMPB_ISR>
     60a:	f0 91 67 01 	lds	r31, 0x0167	; 0x800167 <_Timer3_CMPB_ISR+0x1>
     60e:	09 95       	icall
     610:	ff 91       	pop	r31
     612:	ef 91       	pop	r30
     614:	bf 91       	pop	r27
     616:	af 91       	pop	r26
     618:	9f 91       	pop	r25
     61a:	8f 91       	pop	r24
     61c:	7f 91       	pop	r23
     61e:	6f 91       	pop	r22
     620:	5f 91       	pop	r21
     622:	4f 91       	pop	r20
     624:	3f 91       	pop	r19
     626:	2f 91       	pop	r18
     628:	0f 90       	pop	r0
     62a:	0b be       	out	0x3b, r0	; 59
     62c:	0f 90       	pop	r0
     62e:	0f be       	out	0x3f, r0	; 63
     630:	0f 90       	pop	r0
     632:	1f 90       	pop	r1
     634:	18 95       	reti

00000636 <__vector_28>:
     636:	1f 92       	push	r1
     638:	0f 92       	push	r0
     63a:	0f b6       	in	r0, 0x3f	; 63
     63c:	0f 92       	push	r0
     63e:	11 24       	eor	r1, r1
     640:	0b b6       	in	r0, 0x3b	; 59
     642:	0f 92       	push	r0
     644:	2f 93       	push	r18
     646:	3f 93       	push	r19
     648:	4f 93       	push	r20
     64a:	5f 93       	push	r21
     64c:	6f 93       	push	r22
     64e:	7f 93       	push	r23
     650:	8f 93       	push	r24
     652:	9f 93       	push	r25
     654:	af 93       	push	r26
     656:	bf 93       	push	r27
     658:	ef 93       	push	r30
     65a:	ff 93       	push	r31
     65c:	e0 91 64 01 	lds	r30, 0x0164	; 0x800164 <_Timer3_CMPC_ISR>
     660:	f0 91 65 01 	lds	r31, 0x0165	; 0x800165 <_Timer3_CMPC_ISR+0x1>
     664:	09 95       	icall
     666:	ff 91       	pop	r31
     668:	ef 91       	pop	r30
     66a:	bf 91       	pop	r27
     66c:	af 91       	pop	r26
     66e:	9f 91       	pop	r25
     670:	8f 91       	pop	r24
     672:	7f 91       	pop	r23
     674:	6f 91       	pop	r22
     676:	5f 91       	pop	r21
     678:	4f 91       	pop	r20
     67a:	3f 91       	pop	r19
     67c:	2f 91       	pop	r18
     67e:	0f 90       	pop	r0
     680:	0b be       	out	0x3b, r0	; 59
     682:	0f 90       	pop	r0
     684:	0f be       	out	0x3f, r0	; 63
     686:	0f 90       	pop	r0
     688:	1f 90       	pop	r1
     68a:	18 95       	reti

0000068c <__vector_25>:
     68c:	1f 92       	push	r1
     68e:	0f 92       	push	r0
     690:	0f b6       	in	r0, 0x3f	; 63
     692:	0f 92       	push	r0
     694:	11 24       	eor	r1, r1
     696:	0b b6       	in	r0, 0x3b	; 59
     698:	0f 92       	push	r0
     69a:	2f 93       	push	r18
     69c:	3f 93       	push	r19
     69e:	4f 93       	push	r20
     6a0:	5f 93       	push	r21
     6a2:	6f 93       	push	r22
     6a4:	7f 93       	push	r23
     6a6:	8f 93       	push	r24
     6a8:	9f 93       	push	r25
     6aa:	af 93       	push	r26
     6ac:	bf 93       	push	r27
     6ae:	ef 93       	push	r30
     6b0:	ff 93       	push	r31
     6b2:	e0 91 62 01 	lds	r30, 0x0162	; 0x800162 <_Timer3_CPT_ISR>
     6b6:	f0 91 63 01 	lds	r31, 0x0163	; 0x800163 <_Timer3_CPT_ISR+0x1>
     6ba:	09 95       	icall
     6bc:	ff 91       	pop	r31
     6be:	ef 91       	pop	r30
     6c0:	bf 91       	pop	r27
     6c2:	af 91       	pop	r26
     6c4:	9f 91       	pop	r25
     6c6:	8f 91       	pop	r24
     6c8:	7f 91       	pop	r23
     6ca:	6f 91       	pop	r22
     6cc:	5f 91       	pop	r21
     6ce:	4f 91       	pop	r20
     6d0:	3f 91       	pop	r19
     6d2:	2f 91       	pop	r18
     6d4:	0f 90       	pop	r0
     6d6:	0b be       	out	0x3b, r0	; 59
     6d8:	0f 90       	pop	r0
     6da:	0f be       	out	0x3f, r0	; 63
     6dc:	0f 90       	pop	r0
     6de:	1f 90       	pop	r1
     6e0:	18 95       	reti

000006e2 <Timer0_Start>:
     6e2:	83 b7       	in	r24, 0x33	; 51
     6e4:	88 7f       	andi	r24, 0xF8	; 248
     6e6:	83 bf       	out	0x33, r24	; 51
     6e8:	12 be       	out	0x32, r1	; 50
     6ea:	93 b7       	in	r25, 0x33	; 51
     6ec:	80 91 61 01 	lds	r24, 0x0161	; 0x800161 <_Timer0_prsc>
     6f0:	89 2b       	or	r24, r25
     6f2:	83 bf       	out	0x33, r24	; 51
     6f4:	08 95       	ret

000006f6 <Timer0_Reset>:
     6f6:	12 be       	out	0x32, r1	; 50
     6f8:	08 95       	ret

000006fa <Timer0_Stop>:
     6fa:	83 b7       	in	r24, 0x33	; 51
     6fc:	88 7f       	andi	r24, 0xF8	; 248
     6fe:	83 bf       	out	0x33, r24	; 51
     700:	08 95       	ret

00000702 <Timer0_Count>:
     702:	cf 93       	push	r28
     704:	df 93       	push	r29
     706:	cd b7       	in	r28, 0x3d	; 61
     708:	de b7       	in	r29, 0x3e	; 62
     70a:	a0 97       	sbiw	r28, 0x20	; 32
     70c:	0f b6       	in	r0, 0x3f	; 63
     70e:	f8 94       	cli
     710:	de bf       	out	0x3e, r29	; 62
     712:	0f be       	out	0x3f, r0	; 63
     714:	cd bf       	out	0x3d, r28	; 61
     716:	80 e2       	ldi	r24, 0x20	; 32
     718:	ec e1       	ldi	r30, 0x1C	; 28
     71a:	f1 e0       	ldi	r31, 0x01	; 1
     71c:	de 01       	movw	r26, r28
     71e:	11 96       	adiw	r26, 0x01	; 1
     720:	01 90       	ld	r0, Z+
     722:	0d 92       	st	X+, r0
     724:	8a 95       	dec	r24
     726:	e1 f7       	brne	.-8      	; 0x720 <Timer0_Count+0x1e>
     728:	62 b7       	in	r22, 0x32	; 50
     72a:	86 2f       	mov	r24, r22
     72c:	90 e0       	ldi	r25, 0x00	; 0
     72e:	a0 e0       	ldi	r26, 0x00	; 0
     730:	b0 e0       	ldi	r27, 0x00	; 0
     732:	20 91 61 01 	lds	r18, 0x0161	; 0x800161 <_Timer0_prsc>
     736:	e1 e0       	ldi	r30, 0x01	; 1
     738:	f0 e0       	ldi	r31, 0x00	; 0
     73a:	ec 0f       	add	r30, r28
     73c:	fd 1f       	adc	r31, r29
     73e:	34 e0       	ldi	r19, 0x04	; 4
     740:	23 9f       	mul	r18, r19
     742:	e0 0d       	add	r30, r0
     744:	f1 1d       	adc	r31, r1
     746:	11 24       	eor	r1, r1
     748:	bc 01       	movw	r22, r24
     74a:	cd 01       	movw	r24, r26
     74c:	00 80       	ld	r0, Z
     74e:	04 c0       	rjmp	.+8      	; 0x758 <Timer0_Count+0x56>
     750:	66 0f       	add	r22, r22
     752:	77 1f       	adc	r23, r23
     754:	88 1f       	adc	r24, r24
     756:	99 1f       	adc	r25, r25
     758:	0a 94       	dec	r0
     75a:	d2 f7       	brpl	.-12     	; 0x750 <Timer0_Count+0x4e>
     75c:	a0 96       	adiw	r28, 0x20	; 32
     75e:	0f b6       	in	r0, 0x3f	; 63
     760:	f8 94       	cli
     762:	de bf       	out	0x3e, r29	; 62
     764:	0f be       	out	0x3f, r0	; 63
     766:	cd bf       	out	0x3d, r28	; 61
     768:	df 91       	pop	r29
     76a:	cf 91       	pop	r28
     76c:	08 95       	ret

0000076e <Timer0_SetDc>:
     76e:	68 2f       	mov	r22, r24
     770:	70 e0       	ldi	r23, 0x00	; 0
     772:	80 e0       	ldi	r24, 0x00	; 0
     774:	90 e0       	ldi	r25, 0x00	; 0
     776:	0e 94 6a 0c 	call	0x18d4	; 0x18d4 <__floatsisf>
     77a:	23 e3       	ldi	r18, 0x33	; 51
     77c:	33 e3       	ldi	r19, 0x33	; 51
     77e:	43 e2       	ldi	r20, 0x23	; 35
     780:	50 e4       	ldi	r21, 0x40	; 64
     782:	0e 94 ce 0c 	call	0x199c	; 0x199c <__mulsf3>
     786:	0e 94 39 0c 	call	0x1872	; 0x1872 <__fixunssfsi>
     78a:	61 bf       	out	0x31, r22	; 49
     78c:	92 b7       	in	r25, 0x32	; 50
     78e:	81 b7       	in	r24, 0x31	; 49
     790:	89 17       	cp	r24, r25
     792:	18 f4       	brcc	.+6      	; 0x79a <Timer0_SetDc+0x2c>
     794:	81 b7       	in	r24, 0x31	; 49
     796:	81 50       	subi	r24, 0x01	; 1
     798:	82 bf       	out	0x32, r24	; 50
     79a:	08 95       	ret

0000079c <Timer0_SetTime>:
     79c:	cf 93       	push	r28
     79e:	df 93       	push	r29
     7a0:	00 d0       	rcall	.+0      	; 0x7a2 <Timer0_SetTime+0x6>
     7a2:	00 d0       	rcall	.+0      	; 0x7a4 <Timer0_SetTime+0x8>
     7a4:	cd b7       	in	r28, 0x3d	; 61
     7a6:	de b7       	in	r29, 0x3e	; 62
     7a8:	6f 3f       	cpi	r22, 0xFF	; 255
     7aa:	71 05       	cpc	r23, r1
     7ac:	81 05       	cpc	r24, r1
     7ae:	91 05       	cpc	r25, r1
     7b0:	09 f0       	breq	.+2      	; 0x7b4 <Timer0_SetTime+0x18>
     7b2:	10 f4       	brcc	.+4      	; 0x7b8 <Timer0_SetTime+0x1c>
     7b4:	21 e0       	ldi	r18, 0x01	; 1
     7b6:	50 c0       	rjmp	.+160    	; 0x858 <Timer0_SetTime+0xbc>
     7b8:	69 3f       	cpi	r22, 0xF9	; 249
     7ba:	27 e0       	ldi	r18, 0x07	; 7
     7bc:	72 07       	cpc	r23, r18
     7be:	81 05       	cpc	r24, r1
     7c0:	91 05       	cpc	r25, r1
     7c2:	48 f4       	brcc	.+18     	; 0x7d6 <Timer0_SetTime+0x3a>
     7c4:	f3 e0       	ldi	r31, 0x03	; 3
     7c6:	96 95       	lsr	r25
     7c8:	87 95       	ror	r24
     7ca:	77 95       	ror	r23
     7cc:	67 95       	ror	r22
     7ce:	fa 95       	dec	r31
     7d0:	d1 f7       	brne	.-12     	; 0x7c6 <Timer0_SetTime+0x2a>
     7d2:	22 e0       	ldi	r18, 0x02	; 2
     7d4:	41 c0       	rjmp	.+130    	; 0x858 <Timer0_SetTime+0xbc>
     7d6:	61 3e       	cpi	r22, 0xE1	; 225
     7d8:	2f e1       	ldi	r18, 0x1F	; 31
     7da:	72 07       	cpc	r23, r18
     7dc:	81 05       	cpc	r24, r1
     7de:	91 05       	cpc	r25, r1
     7e0:	48 f4       	brcc	.+18     	; 0x7f4 <Timer0_SetTime+0x58>
     7e2:	e5 e0       	ldi	r30, 0x05	; 5
     7e4:	96 95       	lsr	r25
     7e6:	87 95       	ror	r24
     7e8:	77 95       	ror	r23
     7ea:	67 95       	ror	r22
     7ec:	ea 95       	dec	r30
     7ee:	d1 f7       	brne	.-12     	; 0x7e4 <Timer0_SetTime+0x48>
     7f0:	23 e0       	ldi	r18, 0x03	; 3
     7f2:	32 c0       	rjmp	.+100    	; 0x858 <Timer0_SetTime+0xbc>
     7f4:	61 3c       	cpi	r22, 0xC1	; 193
     7f6:	2f e3       	ldi	r18, 0x3F	; 63
     7f8:	72 07       	cpc	r23, r18
     7fa:	81 05       	cpc	r24, r1
     7fc:	91 05       	cpc	r25, r1
     7fe:	48 f4       	brcc	.+18     	; 0x812 <Timer0_SetTime+0x76>
     800:	56 e0       	ldi	r21, 0x06	; 6
     802:	96 95       	lsr	r25
     804:	87 95       	ror	r24
     806:	77 95       	ror	r23
     808:	67 95       	ror	r22
     80a:	5a 95       	dec	r21
     80c:	d1 f7       	brne	.-12     	; 0x802 <Timer0_SetTime+0x66>
     80e:	24 e0       	ldi	r18, 0x04	; 4
     810:	23 c0       	rjmp	.+70     	; 0x858 <Timer0_SetTime+0xbc>
     812:	61 38       	cpi	r22, 0x81	; 129
     814:	2f e7       	ldi	r18, 0x7F	; 127
     816:	72 07       	cpc	r23, r18
     818:	81 05       	cpc	r24, r1
     81a:	91 05       	cpc	r25, r1
     81c:	48 f4       	brcc	.+18     	; 0x830 <Timer0_SetTime+0x94>
     81e:	47 e0       	ldi	r20, 0x07	; 7
     820:	96 95       	lsr	r25
     822:	87 95       	ror	r24
     824:	77 95       	ror	r23
     826:	67 95       	ror	r22
     828:	4a 95       	dec	r20
     82a:	d1 f7       	brne	.-12     	; 0x820 <Timer0_SetTime+0x84>
     82c:	25 e0       	ldi	r18, 0x05	; 5
     82e:	14 c0       	rjmp	.+40     	; 0x858 <Timer0_SetTime+0xbc>
     830:	61 30       	cpi	r22, 0x01	; 1
     832:	2f ef       	ldi	r18, 0xFF	; 255
     834:	72 07       	cpc	r23, r18
     836:	81 05       	cpc	r24, r1
     838:	91 05       	cpc	r25, r1
     83a:	30 f4       	brcc	.+12     	; 0x848 <Timer0_SetTime+0xac>
     83c:	67 2f       	mov	r22, r23
     83e:	78 2f       	mov	r23, r24
     840:	89 2f       	mov	r24, r25
     842:	99 27       	eor	r25, r25
     844:	26 e0       	ldi	r18, 0x06	; 6
     846:	08 c0       	rjmp	.+16     	; 0x858 <Timer0_SetTime+0xbc>
     848:	2a e0       	ldi	r18, 0x0A	; 10
     84a:	96 95       	lsr	r25
     84c:	87 95       	ror	r24
     84e:	77 95       	ror	r23
     850:	67 95       	ror	r22
     852:	2a 95       	dec	r18
     854:	d1 f7       	brne	.-12     	; 0x84a <Timer0_SetTime+0xae>
     856:	27 e0       	ldi	r18, 0x07	; 7
     858:	20 93 61 01 	sts	0x0161, r18	; 0x800161 <_Timer0_prsc>
     85c:	69 83       	std	Y+1, r22	; 0x01
     85e:	7a 83       	std	Y+2, r23	; 0x02
     860:	8b 83       	std	Y+3, r24	; 0x03
     862:	9c 83       	std	Y+4, r25	; 0x04
     864:	0e 94 7d 03 	call	0x6fa	; 0x6fa <Timer0_Stop>
     868:	69 81       	ldd	r22, Y+1	; 0x01
     86a:	61 bf       	out	0x31, r22	; 49
     86c:	93 b7       	in	r25, 0x33	; 51
     86e:	80 91 61 01 	lds	r24, 0x0161	; 0x800161 <_Timer0_prsc>
     872:	89 2b       	or	r24, r25
     874:	83 bf       	out	0x33, r24	; 51
     876:	0f 90       	pop	r0
     878:	0f 90       	pop	r0
     87a:	0f 90       	pop	r0
     87c:	0f 90       	pop	r0
     87e:	df 91       	pop	r29
     880:	cf 91       	pop	r28
     882:	08 95       	ret

00000884 <Timer0_Init>:
     884:	cf 93       	push	r28
     886:	df 93       	push	r29
     888:	00 d0       	rcall	.+0      	; 0x88a <Timer0_Init+0x6>
     88a:	00 d0       	rcall	.+0      	; 0x88c <Timer0_Init+0x8>
     88c:	1f 92       	push	r1
     88e:	cd b7       	in	r28, 0x3d	; 61
     890:	de b7       	in	r29, 0x3e	; 62
     892:	4a 83       	std	Y+2, r20	; 0x02
     894:	5b 83       	std	Y+3, r21	; 0x03
     896:	6c 83       	std	Y+4, r22	; 0x04
     898:	7d 83       	std	Y+5, r23	; 0x05
     89a:	89 83       	std	Y+1, r24	; 0x01
     89c:	0e 94 7d 03 	call	0x6fa	; 0x6fa <Timer0_Stop>
     8a0:	96 b7       	in	r25, 0x36	; 54
     8a2:	93 60       	ori	r25, 0x03	; 3
     8a4:	96 bf       	out	0x36, r25	; 54
     8a6:	89 81       	ldd	r24, Y+1	; 0x01
     8a8:	98 2f       	mov	r25, r24
     8aa:	93 70       	andi	r25, 0x03	; 3
     8ac:	4a 81       	ldd	r20, Y+2	; 0x02
     8ae:	5b 81       	ldd	r21, Y+3	; 0x03
     8b0:	6c 81       	ldd	r22, Y+4	; 0x04
     8b2:	7d 81       	ldd	r23, Y+5	; 0x05
     8b4:	92 30       	cpi	r25, 0x02	; 2
     8b6:	41 f0       	breq	.+16     	; 0x8c8 <Timer0_Init+0x44>
     8b8:	93 30       	cpi	r25, 0x03	; 3
     8ba:	41 f0       	breq	.+16     	; 0x8cc <Timer0_Init+0x48>
     8bc:	91 30       	cpi	r25, 0x01	; 1
     8be:	11 f0       	breq	.+4      	; 0x8c4 <Timer0_Init+0x40>
     8c0:	90 e8       	ldi	r25, 0x80	; 128
     8c2:	05 c0       	rjmp	.+10     	; 0x8ce <Timer0_Init+0x4a>
     8c4:	90 ec       	ldi	r25, 0xC0	; 192
     8c6:	03 c0       	rjmp	.+6      	; 0x8ce <Timer0_Init+0x4a>
     8c8:	98 e8       	ldi	r25, 0x88	; 136
     8ca:	01 c0       	rjmp	.+2      	; 0x8ce <Timer0_Init+0x4a>
     8cc:	98 ec       	ldi	r25, 0xC8	; 200
     8ce:	93 bf       	out	0x33, r25	; 51
     8d0:	93 b7       	in	r25, 0x33	; 51
     8d2:	9f 7c       	andi	r25, 0xCF	; 207
     8d4:	93 bf       	out	0x33, r25	; 51
     8d6:	80 7e       	andi	r24, 0xE0	; 224
     8d8:	80 34       	cpi	r24, 0x40	; 64
     8da:	39 f0       	breq	.+14     	; 0x8ea <Timer0_Init+0x66>
     8dc:	80 38       	cpi	r24, 0x80	; 128
     8de:	41 f0       	breq	.+16     	; 0x8f0 <Timer0_Init+0x6c>
     8e0:	80 32       	cpi	r24, 0x20	; 32
     8e2:	51 f4       	brne	.+20     	; 0x8f8 <Timer0_Init+0x74>
     8e4:	83 b7       	in	r24, 0x33	; 51
     8e6:	80 61       	ori	r24, 0x10	; 16
     8e8:	05 c0       	rjmp	.+10     	; 0x8f4 <Timer0_Init+0x70>
     8ea:	83 b7       	in	r24, 0x33	; 51
     8ec:	80 62       	ori	r24, 0x20	; 32
     8ee:	02 c0       	rjmp	.+4      	; 0x8f4 <Timer0_Init+0x70>
     8f0:	83 b7       	in	r24, 0x33	; 51
     8f2:	80 63       	ori	r24, 0x30	; 48
     8f4:	83 bf       	out	0x33, r24	; 51
     8f6:	bc 9a       	sbi	0x17, 4	; 23
     8f8:	cb 01       	movw	r24, r22
     8fa:	ba 01       	movw	r22, r20
     8fc:	0f 90       	pop	r0
     8fe:	0f 90       	pop	r0
     900:	0f 90       	pop	r0
     902:	0f 90       	pop	r0
     904:	0f 90       	pop	r0
     906:	df 91       	pop	r29
     908:	cf 91       	pop	r28
     90a:	0c 94 ce 03 	jmp	0x79c	; 0x79c <Timer0_SetTime>

0000090e <Timer0_SetCmpMatch>:
     90e:	0c 94 ce 03 	jmp	0x79c	; 0x79c <Timer0_SetTime>

00000912 <Timer0_CbOverflow>:
     912:	9c 01       	movw	r18, r24
     914:	97 b7       	in	r25, 0x37	; 55
     916:	9e 7f       	andi	r25, 0xFE	; 254
     918:	97 bf       	out	0x37, r25	; 55
     91a:	30 93 7b 01 	sts	0x017B, r19	; 0x80017b <_Timer0_OVF_ISR+0x1>
     91e:	20 93 7a 01 	sts	0x017A, r18	; 0x80017a <_Timer0_OVF_ISR>
     922:	23 2b       	or	r18, r19
     924:	21 f0       	breq	.+8      	; 0x92e <Timer0_CbOverflow+0x1c>
     926:	87 b7       	in	r24, 0x37	; 55
     928:	81 60       	ori	r24, 0x01	; 1
     92a:	87 bf       	out	0x37, r24	; 55
     92c:	78 94       	sei
     92e:	08 95       	ret

00000930 <Timer0_CbCmpMatch>:
     930:	9c 01       	movw	r18, r24
     932:	97 b7       	in	r25, 0x37	; 55
     934:	9d 7f       	andi	r25, 0xFD	; 253
     936:	97 bf       	out	0x37, r25	; 55
     938:	30 93 7d 01 	sts	0x017D, r19	; 0x80017d <_Timer0_CMP_ISR+0x1>
     93c:	20 93 7c 01 	sts	0x017C, r18	; 0x80017c <_Timer0_CMP_ISR>
     940:	23 2b       	or	r18, r19
     942:	21 f0       	breq	.+8      	; 0x94c <Timer0_CbCmpMatch+0x1c>
     944:	87 b7       	in	r24, 0x37	; 55
     946:	82 60       	ori	r24, 0x02	; 2
     948:	87 bf       	out	0x37, r24	; 55
     94a:	78 94       	sei
     94c:	08 95       	ret

0000094e <Timer0_IsOverflow>:
     94e:	96 b7       	in	r25, 0x36	; 54
     950:	89 2f       	mov	r24, r25
     952:	81 70       	andi	r24, 0x01	; 1
     954:	90 ff       	sbrs	r25, 0
     956:	03 c0       	rjmp	.+6      	; 0x95e <Timer0_IsOverflow+0x10>
     958:	96 b7       	in	r25, 0x36	; 54
     95a:	91 60       	ori	r25, 0x01	; 1
     95c:	96 bf       	out	0x36, r25	; 54
     95e:	08 95       	ret

00000960 <Timer0_IsCmpMatch>:
     960:	96 b7       	in	r25, 0x36	; 54
     962:	91 fb       	bst	r25, 1
     964:	88 27       	eor	r24, r24
     966:	80 f9       	bld	r24, 0
     968:	91 ff       	sbrs	r25, 1
     96a:	03 c0       	rjmp	.+6      	; 0x972 <Timer0_IsCmpMatch+0x12>
     96c:	96 b7       	in	r25, 0x36	; 54
     96e:	92 60       	ori	r25, 0x02	; 2
     970:	96 bf       	out	0x36, r25	; 54
     972:	08 95       	ret

00000974 <Timer1_Start>:
     974:	8e b5       	in	r24, 0x2e	; 46
     976:	88 7f       	andi	r24, 0xF8	; 248
     978:	8e bd       	out	0x2e, r24	; 46
     97a:	1d bc       	out	0x2d, r1	; 45
     97c:	1c bc       	out	0x2c, r1	; 44
     97e:	9e b5       	in	r25, 0x2e	; 46
     980:	80 91 60 01 	lds	r24, 0x0160	; 0x800160 <_Timer1_prsc>
     984:	89 2b       	or	r24, r25
     986:	8e bd       	out	0x2e, r24	; 46
     988:	08 95       	ret

0000098a <Timer1_Reset>:
     98a:	1d bc       	out	0x2d, r1	; 45
     98c:	1c bc       	out	0x2c, r1	; 44
     98e:	08 95       	ret

00000990 <Timer1_Stop>:
     990:	8e b5       	in	r24, 0x2e	; 46
     992:	88 7f       	andi	r24, 0xF8	; 248
     994:	8e bd       	out	0x2e, r24	; 46
     996:	08 95       	ret

00000998 <Timer1_Count>:
     998:	cf 93       	push	r28
     99a:	df 93       	push	r29
     99c:	cd b7       	in	r28, 0x3d	; 61
     99e:	de b7       	in	r29, 0x3e	; 62
     9a0:	a0 97       	sbiw	r28, 0x20	; 32
     9a2:	0f b6       	in	r0, 0x3f	; 63
     9a4:	f8 94       	cli
     9a6:	de bf       	out	0x3e, r29	; 62
     9a8:	0f be       	out	0x3f, r0	; 63
     9aa:	cd bf       	out	0x3d, r28	; 61
     9ac:	80 e2       	ldi	r24, 0x20	; 32
     9ae:	ec e3       	ldi	r30, 0x3C	; 60
     9b0:	f1 e0       	ldi	r31, 0x01	; 1
     9b2:	de 01       	movw	r26, r28
     9b4:	11 96       	adiw	r26, 0x01	; 1
     9b6:	01 90       	ld	r0, Z+
     9b8:	0d 92       	st	X+, r0
     9ba:	8a 95       	dec	r24
     9bc:	e1 f7       	brne	.-8      	; 0x9b6 <Timer1_Count+0x1e>
     9be:	6c b5       	in	r22, 0x2c	; 44
     9c0:	7d b5       	in	r23, 0x2d	; 45
     9c2:	cb 01       	movw	r24, r22
     9c4:	a0 e0       	ldi	r26, 0x00	; 0
     9c6:	b0 e0       	ldi	r27, 0x00	; 0
     9c8:	20 91 60 01 	lds	r18, 0x0160	; 0x800160 <_Timer1_prsc>
     9cc:	e1 e0       	ldi	r30, 0x01	; 1
     9ce:	f0 e0       	ldi	r31, 0x00	; 0
     9d0:	ec 0f       	add	r30, r28
     9d2:	fd 1f       	adc	r31, r29
     9d4:	34 e0       	ldi	r19, 0x04	; 4
     9d6:	23 9f       	mul	r18, r19
     9d8:	e0 0d       	add	r30, r0
     9da:	f1 1d       	adc	r31, r1
     9dc:	11 24       	eor	r1, r1
     9de:	bc 01       	movw	r22, r24
     9e0:	cd 01       	movw	r24, r26
     9e2:	00 80       	ld	r0, Z
     9e4:	04 c0       	rjmp	.+8      	; 0x9ee <Timer1_Count+0x56>
     9e6:	66 0f       	add	r22, r22
     9e8:	77 1f       	adc	r23, r23
     9ea:	88 1f       	adc	r24, r24
     9ec:	99 1f       	adc	r25, r25
     9ee:	0a 94       	dec	r0
     9f0:	d2 f7       	brpl	.-12     	; 0x9e6 <Timer1_Count+0x4e>
     9f2:	a0 96       	adiw	r28, 0x20	; 32
     9f4:	0f b6       	in	r0, 0x3f	; 63
     9f6:	f8 94       	cli
     9f8:	de bf       	out	0x3e, r29	; 62
     9fa:	0f be       	out	0x3f, r0	; 63
     9fc:	cd bf       	out	0x3d, r28	; 61
     9fe:	df 91       	pop	r29
     a00:	cf 91       	pop	r28
     a02:	08 95       	ret

00000a04 <Timer1_SetDc>:
     a04:	68 2f       	mov	r22, r24
     a06:	70 e0       	ldi	r23, 0x00	; 0
     a08:	80 e0       	ldi	r24, 0x00	; 0
     a0a:	90 e0       	ldi	r25, 0x00	; 0
     a0c:	0e 94 6a 0c 	call	0x18d4	; 0x18d4 <__floatsisf>
     a10:	23 e3       	ldi	r18, 0x33	; 51
     a12:	33 e3       	ldi	r19, 0x33	; 51
     a14:	43 e2       	ldi	r20, 0x23	; 35
     a16:	50 e4       	ldi	r21, 0x40	; 64
     a18:	0e 94 ce 0c 	call	0x199c	; 0x199c <__mulsf3>
     a1c:	0e 94 39 0c 	call	0x1872	; 0x1872 <__fixunssfsi>
     a20:	7b bd       	out	0x2b, r23	; 43
     a22:	6a bd       	out	0x2a, r22	; 42
     a24:	2c b5       	in	r18, 0x2c	; 44
     a26:	3d b5       	in	r19, 0x2d	; 45
     a28:	8a b5       	in	r24, 0x2a	; 42
     a2a:	9b b5       	in	r25, 0x2b	; 43
     a2c:	82 17       	cp	r24, r18
     a2e:	93 07       	cpc	r25, r19
     a30:	28 f4       	brcc	.+10     	; 0xa3c <Timer1_SetDc+0x38>
     a32:	8a b5       	in	r24, 0x2a	; 42
     a34:	9b b5       	in	r25, 0x2b	; 43
     a36:	01 97       	sbiw	r24, 0x01	; 1
     a38:	9d bd       	out	0x2d, r25	; 45
     a3a:	8c bd       	out	0x2c, r24	; 44
     a3c:	08 95       	ret

00000a3e <Timer1_SetTime>:
     a3e:	cf 93       	push	r28
     a40:	df 93       	push	r29
     a42:	00 d0       	rcall	.+0      	; 0xa44 <Timer1_SetTime+0x6>
     a44:	00 d0       	rcall	.+0      	; 0xa46 <Timer1_SetTime+0x8>
     a46:	cd b7       	in	r28, 0x3d	; 61
     a48:	de b7       	in	r29, 0x3e	; 62
     a4a:	61 15       	cp	r22, r1
     a4c:	71 05       	cpc	r23, r1
     a4e:	21 e0       	ldi	r18, 0x01	; 1
     a50:	82 07       	cpc	r24, r18
     a52:	91 05       	cpc	r25, r1
     a54:	10 f4       	brcc	.+4      	; 0xa5a <Timer1_SetTime+0x1c>
     a56:	21 e0       	ldi	r18, 0x01	; 1
     a58:	34 c0       	rjmp	.+104    	; 0xac2 <Timer1_SetTime+0x84>
     a5a:	69 3f       	cpi	r22, 0xF9	; 249
     a5c:	2f ef       	ldi	r18, 0xFF	; 255
     a5e:	72 07       	cpc	r23, r18
     a60:	27 e0       	ldi	r18, 0x07	; 7
     a62:	82 07       	cpc	r24, r18
     a64:	91 05       	cpc	r25, r1
     a66:	48 f4       	brcc	.+18     	; 0xa7a <Timer1_SetTime+0x3c>
     a68:	53 e0       	ldi	r21, 0x03	; 3
     a6a:	96 95       	lsr	r25
     a6c:	87 95       	ror	r24
     a6e:	77 95       	ror	r23
     a70:	67 95       	ror	r22
     a72:	5a 95       	dec	r21
     a74:	d1 f7       	brne	.-12     	; 0xa6a <Timer1_SetTime+0x2c>
     a76:	22 e0       	ldi	r18, 0x02	; 2
     a78:	24 c0       	rjmp	.+72     	; 0xac2 <Timer1_SetTime+0x84>
     a7a:	61 3c       	cpi	r22, 0xC1	; 193
     a7c:	2f ef       	ldi	r18, 0xFF	; 255
     a7e:	72 07       	cpc	r23, r18
     a80:	2f e3       	ldi	r18, 0x3F	; 63
     a82:	82 07       	cpc	r24, r18
     a84:	91 05       	cpc	r25, r1
     a86:	48 f4       	brcc	.+18     	; 0xa9a <Timer1_SetTime+0x5c>
     a88:	46 e0       	ldi	r20, 0x06	; 6
     a8a:	96 95       	lsr	r25
     a8c:	87 95       	ror	r24
     a8e:	77 95       	ror	r23
     a90:	67 95       	ror	r22
     a92:	4a 95       	dec	r20
     a94:	d1 f7       	brne	.-12     	; 0xa8a <Timer1_SetTime+0x4c>
     a96:	23 e0       	ldi	r18, 0x03	; 3
     a98:	14 c0       	rjmp	.+40     	; 0xac2 <Timer1_SetTime+0x84>
     a9a:	61 30       	cpi	r22, 0x01	; 1
     a9c:	2f ef       	ldi	r18, 0xFF	; 255
     a9e:	72 07       	cpc	r23, r18
     aa0:	82 07       	cpc	r24, r18
     aa2:	91 05       	cpc	r25, r1
     aa4:	30 f4       	brcc	.+12     	; 0xab2 <Timer1_SetTime+0x74>
     aa6:	67 2f       	mov	r22, r23
     aa8:	78 2f       	mov	r23, r24
     aaa:	89 2f       	mov	r24, r25
     aac:	99 27       	eor	r25, r25
     aae:	24 e0       	ldi	r18, 0x04	; 4
     ab0:	08 c0       	rjmp	.+16     	; 0xac2 <Timer1_SetTime+0x84>
     ab2:	2a e0       	ldi	r18, 0x0A	; 10
     ab4:	96 95       	lsr	r25
     ab6:	87 95       	ror	r24
     ab8:	77 95       	ror	r23
     aba:	67 95       	ror	r22
     abc:	2a 95       	dec	r18
     abe:	d1 f7       	brne	.-12     	; 0xab4 <Timer1_SetTime+0x76>
     ac0:	25 e0       	ldi	r18, 0x05	; 5
     ac2:	20 93 60 01 	sts	0x0160, r18	; 0x800160 <_Timer1_prsc>
     ac6:	69 83       	std	Y+1, r22	; 0x01
     ac8:	7a 83       	std	Y+2, r23	; 0x02
     aca:	8b 83       	std	Y+3, r24	; 0x03
     acc:	9c 83       	std	Y+4, r25	; 0x04
     ace:	0e 94 c8 04 	call	0x990	; 0x990 <Timer1_Stop>
     ad2:	69 81       	ldd	r22, Y+1	; 0x01
     ad4:	7a 81       	ldd	r23, Y+2	; 0x02
     ad6:	7b bd       	out	0x2b, r23	; 43
     ad8:	6a bd       	out	0x2a, r22	; 42
     ada:	9e b5       	in	r25, 0x2e	; 46
     adc:	80 91 60 01 	lds	r24, 0x0160	; 0x800160 <_Timer1_prsc>
     ae0:	89 2b       	or	r24, r25
     ae2:	8e bd       	out	0x2e, r24	; 46
     ae4:	0f 90       	pop	r0
     ae6:	0f 90       	pop	r0
     ae8:	0f 90       	pop	r0
     aea:	0f 90       	pop	r0
     aec:	df 91       	pop	r29
     aee:	cf 91       	pop	r28
     af0:	08 95       	ret

00000af2 <Timer1_Init>:
     af2:	cf 93       	push	r28
     af4:	df 93       	push	r29
     af6:	00 d0       	rcall	.+0      	; 0xaf8 <Timer1_Init+0x6>
     af8:	00 d0       	rcall	.+0      	; 0xafa <Timer1_Init+0x8>
     afa:	1f 92       	push	r1
     afc:	cd b7       	in	r28, 0x3d	; 61
     afe:	de b7       	in	r29, 0x3e	; 62
     b00:	4a 83       	std	Y+2, r20	; 0x02
     b02:	5b 83       	std	Y+3, r21	; 0x03
     b04:	6c 83       	std	Y+4, r22	; 0x04
     b06:	7d 83       	std	Y+5, r23	; 0x05
     b08:	89 83       	std	Y+1, r24	; 0x01
     b0a:	0e 94 c8 04 	call	0x990	; 0x990 <Timer1_Stop>
     b0e:	96 b7       	in	r25, 0x36	; 54
     b10:	9c 63       	ori	r25, 0x3C	; 60
     b12:	96 bf       	out	0x36, r25	; 54
     b14:	89 81       	ldd	r24, Y+1	; 0x01
     b16:	98 2f       	mov	r25, r24
     b18:	9f 70       	andi	r25, 0x0F	; 15
     b1a:	4a 81       	ldd	r20, Y+2	; 0x02
     b1c:	5b 81       	ldd	r21, Y+3	; 0x03
     b1e:	6c 81       	ldd	r22, Y+4	; 0x04
     b20:	7d 81       	ldd	r23, Y+5	; 0x05
     b22:	91 30       	cpi	r25, 0x01	; 1
     b24:	41 f0       	breq	.+16     	; 0xb36 <Timer1_Init+0x44>
     b26:	78 f0       	brcs	.+30     	; 0xb46 <Timer1_Init+0x54>
     b28:	92 30       	cpi	r25, 0x02	; 2
     b2a:	49 f0       	breq	.+18     	; 0xb3e <Timer1_Init+0x4c>
     b2c:	93 30       	cpi	r25, 0x03	; 3
     b2e:	59 f4       	brne	.+22     	; 0xb46 <Timer1_Init+0x54>
     b30:	9f bd       	out	0x2f, r25	; 47
     b32:	98 e1       	ldi	r25, 0x18	; 24
     b34:	06 c0       	rjmp	.+12     	; 0xb42 <Timer1_Init+0x50>
     b36:	93 e0       	ldi	r25, 0x03	; 3
     b38:	9f bd       	out	0x2f, r25	; 47
     b3a:	90 e1       	ldi	r25, 0x10	; 16
     b3c:	02 c0       	rjmp	.+4      	; 0xb42 <Timer1_Init+0x50>
     b3e:	1f bc       	out	0x2f, r1	; 47
     b40:	98 e0       	ldi	r25, 0x08	; 8
     b42:	9e bd       	out	0x2e, r25	; 46
     b44:	02 c0       	rjmp	.+4      	; 0xb4a <Timer1_Init+0x58>
     b46:	1f bc       	out	0x2f, r1	; 47
     b48:	1e bc       	out	0x2e, r1	; 46
     b4a:	9f b5       	in	r25, 0x2f	; 47
     b4c:	9f 70       	andi	r25, 0x0F	; 15
     b4e:	9f bd       	out	0x2f, r25	; 47
     b50:	80 7f       	andi	r24, 0xF0	; 240
     b52:	80 34       	cpi	r24, 0x40	; 64
     b54:	39 f0       	breq	.+14     	; 0xb64 <Timer1_Init+0x72>
     b56:	80 38       	cpi	r24, 0x80	; 128
     b58:	41 f0       	breq	.+16     	; 0xb6a <Timer1_Init+0x78>
     b5a:	80 32       	cpi	r24, 0x20	; 32
     b5c:	51 f4       	brne	.+20     	; 0xb72 <Timer1_Init+0x80>
     b5e:	8f b5       	in	r24, 0x2f	; 47
     b60:	80 64       	ori	r24, 0x40	; 64
     b62:	05 c0       	rjmp	.+10     	; 0xb6e <Timer1_Init+0x7c>
     b64:	8f b5       	in	r24, 0x2f	; 47
     b66:	80 68       	ori	r24, 0x80	; 128
     b68:	02 c0       	rjmp	.+4      	; 0xb6e <Timer1_Init+0x7c>
     b6a:	8f b5       	in	r24, 0x2f	; 47
     b6c:	80 6c       	ori	r24, 0xC0	; 192
     b6e:	8f bd       	out	0x2f, r24	; 47
     b70:	bd 9a       	sbi	0x17, 5	; 23
     b72:	cb 01       	movw	r24, r22
     b74:	ba 01       	movw	r22, r20
     b76:	0f 90       	pop	r0
     b78:	0f 90       	pop	r0
     b7a:	0f 90       	pop	r0
     b7c:	0f 90       	pop	r0
     b7e:	0f 90       	pop	r0
     b80:	df 91       	pop	r29
     b82:	cf 91       	pop	r28
     b84:	0c 94 1f 05 	jmp	0xa3e	; 0xa3e <Timer1_SetTime>

00000b88 <Timer1_SetCmpMatch>:
     b88:	0c 94 1f 05 	jmp	0xa3e	; 0xa3e <Timer1_SetTime>

00000b8c <Timer1_CbOverflow>:
     b8c:	9c 01       	movw	r18, r24
     b8e:	97 b7       	in	r25, 0x37	; 55
     b90:	9b 7f       	andi	r25, 0xFB	; 251
     b92:	97 bf       	out	0x37, r25	; 55
     b94:	30 93 79 01 	sts	0x0179, r19	; 0x800179 <_Timer1_OVF_ISR+0x1>
     b98:	20 93 78 01 	sts	0x0178, r18	; 0x800178 <_Timer1_OVF_ISR>
     b9c:	23 2b       	or	r18, r19
     b9e:	21 f0       	breq	.+8      	; 0xba8 <Timer1_CbOverflow+0x1c>
     ba0:	87 b7       	in	r24, 0x37	; 55
     ba2:	84 60       	ori	r24, 0x04	; 4
     ba4:	87 bf       	out	0x37, r24	; 55
     ba6:	78 94       	sei
     ba8:	08 95       	ret

00000baa <Timer1_CbCmpMatch>:
     baa:	9c 01       	movw	r18, r24
     bac:	97 b7       	in	r25, 0x37	; 55
     bae:	9f 7e       	andi	r25, 0xEF	; 239
     bb0:	97 bf       	out	0x37, r25	; 55
     bb2:	30 93 77 01 	sts	0x0177, r19	; 0x800177 <_Timer1_CMPA_ISR+0x1>
     bb6:	20 93 76 01 	sts	0x0176, r18	; 0x800176 <_Timer1_CMPA_ISR>
     bba:	23 2b       	or	r18, r19
     bbc:	21 f0       	breq	.+8      	; 0xbc6 <Timer1_CbCmpMatch+0x1c>
     bbe:	87 b7       	in	r24, 0x37	; 55
     bc0:	80 61       	ori	r24, 0x10	; 16
     bc2:	87 bf       	out	0x37, r24	; 55
     bc4:	78 94       	sei
     bc6:	08 95       	ret

00000bc8 <Timer1_CbCapture>:
     bc8:	9c 01       	movw	r18, r24
     bca:	97 b7       	in	r25, 0x37	; 55
     bcc:	9f 7d       	andi	r25, 0xDF	; 223
     bce:	97 bf       	out	0x37, r25	; 55
     bd0:	30 93 71 01 	sts	0x0171, r19	; 0x800171 <_Timer1_CPT_ISR+0x1>
     bd4:	20 93 70 01 	sts	0x0170, r18	; 0x800170 <_Timer1_CPT_ISR>
     bd8:	23 2b       	or	r18, r19
     bda:	21 f0       	breq	.+8      	; 0xbe4 <Timer1_CbCapture+0x1c>
     bdc:	87 b7       	in	r24, 0x37	; 55
     bde:	80 62       	ori	r24, 0x20	; 32
     be0:	87 bf       	out	0x37, r24	; 55
     be2:	78 94       	sei
     be4:	08 95       	ret

00000be6 <Timer1_IsOverflow>:
     be6:	96 b7       	in	r25, 0x36	; 54
     be8:	92 fb       	bst	r25, 2
     bea:	88 27       	eor	r24, r24
     bec:	80 f9       	bld	r24, 0
     bee:	92 ff       	sbrs	r25, 2
     bf0:	03 c0       	rjmp	.+6      	; 0xbf8 <Timer1_IsOverflow+0x12>
     bf2:	96 b7       	in	r25, 0x36	; 54
     bf4:	94 60       	ori	r25, 0x04	; 4
     bf6:	96 bf       	out	0x36, r25	; 54
     bf8:	08 95       	ret

00000bfa <Timer1_IsCmpMatch>:
     bfa:	96 b7       	in	r25, 0x36	; 54
     bfc:	94 fb       	bst	r25, 4
     bfe:	88 27       	eor	r24, r24
     c00:	80 f9       	bld	r24, 0
     c02:	94 ff       	sbrs	r25, 4
     c04:	03 c0       	rjmp	.+6      	; 0xc0c <Timer1_IsCmpMatch+0x12>
     c06:	96 b7       	in	r25, 0x36	; 54
     c08:	90 61       	ori	r25, 0x10	; 16
     c0a:	96 bf       	out	0x36, r25	; 54
     c0c:	08 95       	ret

00000c0e <Timer1_IsCapture>:
     c0e:	96 b7       	in	r25, 0x36	; 54
     c10:	95 fb       	bst	r25, 5
     c12:	88 27       	eor	r24, r24
     c14:	80 f9       	bld	r24, 0
     c16:	95 ff       	sbrs	r25, 5
     c18:	03 c0       	rjmp	.+6      	; 0xc20 <Timer1_IsCapture+0x12>
     c1a:	96 b7       	in	r25, 0x36	; 54
     c1c:	90 62       	ori	r25, 0x20	; 32
     c1e:	96 bf       	out	0x36, r25	; 54
     c20:	08 95       	ret

00000c22 <Timer2_Start>:
     c22:	85 b5       	in	r24, 0x25	; 37
     c24:	88 7f       	andi	r24, 0xF8	; 248
     c26:	85 bd       	out	0x25, r24	; 37
     c28:	14 bc       	out	0x24, r1	; 36
     c2a:	95 b5       	in	r25, 0x25	; 37
     c2c:	80 91 5f 01 	lds	r24, 0x015F	; 0x80015f <_Timer2_prsc>
     c30:	89 2b       	or	r24, r25
     c32:	85 bd       	out	0x25, r24	; 37
     c34:	08 95       	ret

00000c36 <Timer2_Reset>:
     c36:	14 bc       	out	0x24, r1	; 36
     c38:	08 95       	ret

00000c3a <Timer2_Stop>:
     c3a:	85 b5       	in	r24, 0x25	; 37
     c3c:	88 7f       	andi	r24, 0xF8	; 248
     c3e:	85 bd       	out	0x25, r24	; 37
     c40:	08 95       	ret

00000c42 <Timer2_Count>:
     c42:	cf 93       	push	r28
     c44:	df 93       	push	r29
     c46:	cd b7       	in	r28, 0x3d	; 61
     c48:	de b7       	in	r29, 0x3e	; 62
     c4a:	a0 97       	sbiw	r28, 0x20	; 32
     c4c:	0f b6       	in	r0, 0x3f	; 63
     c4e:	f8 94       	cli
     c50:	de bf       	out	0x3e, r29	; 62
     c52:	0f be       	out	0x3f, r0	; 63
     c54:	cd bf       	out	0x3d, r28	; 61
     c56:	80 e2       	ldi	r24, 0x20	; 32
     c58:	ec e1       	ldi	r30, 0x1C	; 28
     c5a:	f1 e0       	ldi	r31, 0x01	; 1
     c5c:	de 01       	movw	r26, r28
     c5e:	11 96       	adiw	r26, 0x01	; 1
     c60:	01 90       	ld	r0, Z+
     c62:	0d 92       	st	X+, r0
     c64:	8a 95       	dec	r24
     c66:	e1 f7       	brne	.-8      	; 0xc60 <Timer2_Count+0x1e>
     c68:	64 b5       	in	r22, 0x24	; 36
     c6a:	86 2f       	mov	r24, r22
     c6c:	90 e0       	ldi	r25, 0x00	; 0
     c6e:	a0 e0       	ldi	r26, 0x00	; 0
     c70:	b0 e0       	ldi	r27, 0x00	; 0
     c72:	20 91 5f 01 	lds	r18, 0x015F	; 0x80015f <_Timer2_prsc>
     c76:	e1 e0       	ldi	r30, 0x01	; 1
     c78:	f0 e0       	ldi	r31, 0x00	; 0
     c7a:	ec 0f       	add	r30, r28
     c7c:	fd 1f       	adc	r31, r29
     c7e:	34 e0       	ldi	r19, 0x04	; 4
     c80:	23 9f       	mul	r18, r19
     c82:	e0 0d       	add	r30, r0
     c84:	f1 1d       	adc	r31, r1
     c86:	11 24       	eor	r1, r1
     c88:	bc 01       	movw	r22, r24
     c8a:	cd 01       	movw	r24, r26
     c8c:	00 80       	ld	r0, Z
     c8e:	04 c0       	rjmp	.+8      	; 0xc98 <Timer2_Count+0x56>
     c90:	66 0f       	add	r22, r22
     c92:	77 1f       	adc	r23, r23
     c94:	88 1f       	adc	r24, r24
     c96:	99 1f       	adc	r25, r25
     c98:	0a 94       	dec	r0
     c9a:	d2 f7       	brpl	.-12     	; 0xc90 <Timer2_Count+0x4e>
     c9c:	a0 96       	adiw	r28, 0x20	; 32
     c9e:	0f b6       	in	r0, 0x3f	; 63
     ca0:	f8 94       	cli
     ca2:	de bf       	out	0x3e, r29	; 62
     ca4:	0f be       	out	0x3f, r0	; 63
     ca6:	cd bf       	out	0x3d, r28	; 61
     ca8:	df 91       	pop	r29
     caa:	cf 91       	pop	r28
     cac:	08 95       	ret

00000cae <Timer2_SetDc>:
     cae:	68 2f       	mov	r22, r24
     cb0:	70 e0       	ldi	r23, 0x00	; 0
     cb2:	80 e0       	ldi	r24, 0x00	; 0
     cb4:	90 e0       	ldi	r25, 0x00	; 0
     cb6:	0e 94 6a 0c 	call	0x18d4	; 0x18d4 <__floatsisf>
     cba:	23 e3       	ldi	r18, 0x33	; 51
     cbc:	33 e3       	ldi	r19, 0x33	; 51
     cbe:	43 e2       	ldi	r20, 0x23	; 35
     cc0:	50 e4       	ldi	r21, 0x40	; 64
     cc2:	0e 94 ce 0c 	call	0x199c	; 0x199c <__mulsf3>
     cc6:	0e 94 39 0c 	call	0x1872	; 0x1872 <__fixunssfsi>
     cca:	63 bd       	out	0x23, r22	; 35
     ccc:	2c b5       	in	r18, 0x2c	; 44
     cce:	3d b5       	in	r19, 0x2d	; 45
     cd0:	83 b5       	in	r24, 0x23	; 35
     cd2:	90 e0       	ldi	r25, 0x00	; 0
     cd4:	82 17       	cp	r24, r18
     cd6:	93 07       	cpc	r25, r19
     cd8:	28 f4       	brcc	.+10     	; 0xce4 <Timer2_SetDc+0x36>
     cda:	83 b5       	in	r24, 0x23	; 35
     cdc:	90 e0       	ldi	r25, 0x00	; 0
     cde:	01 97       	sbiw	r24, 0x01	; 1
     ce0:	9d bd       	out	0x2d, r25	; 45
     ce2:	8c bd       	out	0x2c, r24	; 44
     ce4:	08 95       	ret

00000ce6 <Timer2_SetTime>:
     ce6:	cf 93       	push	r28
     ce8:	df 93       	push	r29
     cea:	00 d0       	rcall	.+0      	; 0xcec <Timer2_SetTime+0x6>
     cec:	00 d0       	rcall	.+0      	; 0xcee <Timer2_SetTime+0x8>
     cee:	cd b7       	in	r28, 0x3d	; 61
     cf0:	de b7       	in	r29, 0x3e	; 62
     cf2:	6f 3f       	cpi	r22, 0xFF	; 255
     cf4:	71 05       	cpc	r23, r1
     cf6:	81 05       	cpc	r24, r1
     cf8:	91 05       	cpc	r25, r1
     cfa:	09 f0       	breq	.+2      	; 0xcfe <Timer2_SetTime+0x18>
     cfc:	10 f4       	brcc	.+4      	; 0xd02 <Timer2_SetTime+0x1c>
     cfe:	21 e0       	ldi	r18, 0x01	; 1
     d00:	50 c0       	rjmp	.+160    	; 0xda2 <Timer2_SetTime+0xbc>
     d02:	69 3f       	cpi	r22, 0xF9	; 249
     d04:	27 e0       	ldi	r18, 0x07	; 7
     d06:	72 07       	cpc	r23, r18
     d08:	81 05       	cpc	r24, r1
     d0a:	91 05       	cpc	r25, r1
     d0c:	48 f4       	brcc	.+18     	; 0xd20 <Timer2_SetTime+0x3a>
     d0e:	f3 e0       	ldi	r31, 0x03	; 3
     d10:	96 95       	lsr	r25
     d12:	87 95       	ror	r24
     d14:	77 95       	ror	r23
     d16:	67 95       	ror	r22
     d18:	fa 95       	dec	r31
     d1a:	d1 f7       	brne	.-12     	; 0xd10 <Timer2_SetTime+0x2a>
     d1c:	22 e0       	ldi	r18, 0x02	; 2
     d1e:	41 c0       	rjmp	.+130    	; 0xda2 <Timer2_SetTime+0xbc>
     d20:	61 3e       	cpi	r22, 0xE1	; 225
     d22:	2f e1       	ldi	r18, 0x1F	; 31
     d24:	72 07       	cpc	r23, r18
     d26:	81 05       	cpc	r24, r1
     d28:	91 05       	cpc	r25, r1
     d2a:	48 f4       	brcc	.+18     	; 0xd3e <Timer2_SetTime+0x58>
     d2c:	e5 e0       	ldi	r30, 0x05	; 5
     d2e:	96 95       	lsr	r25
     d30:	87 95       	ror	r24
     d32:	77 95       	ror	r23
     d34:	67 95       	ror	r22
     d36:	ea 95       	dec	r30
     d38:	d1 f7       	brne	.-12     	; 0xd2e <Timer2_SetTime+0x48>
     d3a:	23 e0       	ldi	r18, 0x03	; 3
     d3c:	32 c0       	rjmp	.+100    	; 0xda2 <Timer2_SetTime+0xbc>
     d3e:	61 3c       	cpi	r22, 0xC1	; 193
     d40:	2f e3       	ldi	r18, 0x3F	; 63
     d42:	72 07       	cpc	r23, r18
     d44:	81 05       	cpc	r24, r1
     d46:	91 05       	cpc	r25, r1
     d48:	48 f4       	brcc	.+18     	; 0xd5c <Timer2_SetTime+0x76>
     d4a:	56 e0       	ldi	r21, 0x06	; 6
     d4c:	96 95       	lsr	r25
     d4e:	87 95       	ror	r24
     d50:	77 95       	ror	r23
     d52:	67 95       	ror	r22
     d54:	5a 95       	dec	r21
     d56:	d1 f7       	brne	.-12     	; 0xd4c <Timer2_SetTime+0x66>
     d58:	24 e0       	ldi	r18, 0x04	; 4
     d5a:	23 c0       	rjmp	.+70     	; 0xda2 <Timer2_SetTime+0xbc>
     d5c:	61 38       	cpi	r22, 0x81	; 129
     d5e:	2f e7       	ldi	r18, 0x7F	; 127
     d60:	72 07       	cpc	r23, r18
     d62:	81 05       	cpc	r24, r1
     d64:	91 05       	cpc	r25, r1
     d66:	48 f4       	brcc	.+18     	; 0xd7a <Timer2_SetTime+0x94>
     d68:	47 e0       	ldi	r20, 0x07	; 7
     d6a:	96 95       	lsr	r25
     d6c:	87 95       	ror	r24
     d6e:	77 95       	ror	r23
     d70:	67 95       	ror	r22
     d72:	4a 95       	dec	r20
     d74:	d1 f7       	brne	.-12     	; 0xd6a <Timer2_SetTime+0x84>
     d76:	25 e0       	ldi	r18, 0x05	; 5
     d78:	14 c0       	rjmp	.+40     	; 0xda2 <Timer2_SetTime+0xbc>
     d7a:	61 30       	cpi	r22, 0x01	; 1
     d7c:	2f ef       	ldi	r18, 0xFF	; 255
     d7e:	72 07       	cpc	r23, r18
     d80:	81 05       	cpc	r24, r1
     d82:	91 05       	cpc	r25, r1
     d84:	30 f4       	brcc	.+12     	; 0xd92 <Timer2_SetTime+0xac>
     d86:	67 2f       	mov	r22, r23
     d88:	78 2f       	mov	r23, r24
     d8a:	89 2f       	mov	r24, r25
     d8c:	99 27       	eor	r25, r25
     d8e:	26 e0       	ldi	r18, 0x06	; 6
     d90:	08 c0       	rjmp	.+16     	; 0xda2 <Timer2_SetTime+0xbc>
     d92:	2a e0       	ldi	r18, 0x0A	; 10
     d94:	96 95       	lsr	r25
     d96:	87 95       	ror	r24
     d98:	77 95       	ror	r23
     d9a:	67 95       	ror	r22
     d9c:	2a 95       	dec	r18
     d9e:	d1 f7       	brne	.-12     	; 0xd94 <Timer2_SetTime+0xae>
     da0:	27 e0       	ldi	r18, 0x07	; 7
     da2:	20 93 5f 01 	sts	0x015F, r18	; 0x80015f <_Timer2_prsc>
     da6:	69 83       	std	Y+1, r22	; 0x01
     da8:	7a 83       	std	Y+2, r23	; 0x02
     daa:	8b 83       	std	Y+3, r24	; 0x03
     dac:	9c 83       	std	Y+4, r25	; 0x04
     dae:	0e 94 1d 06 	call	0xc3a	; 0xc3a <Timer2_Stop>
     db2:	69 81       	ldd	r22, Y+1	; 0x01
     db4:	63 bd       	out	0x23, r22	; 35
     db6:	95 b5       	in	r25, 0x25	; 37
     db8:	80 91 5f 01 	lds	r24, 0x015F	; 0x80015f <_Timer2_prsc>
     dbc:	89 2b       	or	r24, r25
     dbe:	85 bd       	out	0x25, r24	; 37
     dc0:	0f 90       	pop	r0
     dc2:	0f 90       	pop	r0
     dc4:	0f 90       	pop	r0
     dc6:	0f 90       	pop	r0
     dc8:	df 91       	pop	r29
     dca:	cf 91       	pop	r28
     dcc:	08 95       	ret

00000dce <Timer2_Init>:
     dce:	cf 93       	push	r28
     dd0:	df 93       	push	r29
     dd2:	00 d0       	rcall	.+0      	; 0xdd4 <Timer2_Init+0x6>
     dd4:	00 d0       	rcall	.+0      	; 0xdd6 <Timer2_Init+0x8>
     dd6:	1f 92       	push	r1
     dd8:	cd b7       	in	r28, 0x3d	; 61
     dda:	de b7       	in	r29, 0x3e	; 62
     ddc:	4a 83       	std	Y+2, r20	; 0x02
     dde:	5b 83       	std	Y+3, r21	; 0x03
     de0:	6c 83       	std	Y+4, r22	; 0x04
     de2:	7d 83       	std	Y+5, r23	; 0x05
     de4:	89 83       	std	Y+1, r24	; 0x01
     de6:	0e 94 1d 06 	call	0xc3a	; 0xc3a <Timer2_Stop>
     dea:	96 b7       	in	r25, 0x36	; 54
     dec:	90 6c       	ori	r25, 0xC0	; 192
     dee:	96 bf       	out	0x36, r25	; 54
     df0:	89 81       	ldd	r24, Y+1	; 0x01
     df2:	98 2f       	mov	r25, r24
     df4:	9f 70       	andi	r25, 0x0F	; 15
     df6:	4a 81       	ldd	r20, Y+2	; 0x02
     df8:	5b 81       	ldd	r21, Y+3	; 0x03
     dfa:	6c 81       	ldd	r22, Y+4	; 0x04
     dfc:	7d 81       	ldd	r23, Y+5	; 0x05
     dfe:	91 30       	cpi	r25, 0x01	; 1
     e00:	39 f0       	breq	.+14     	; 0xe10 <Timer2_Init+0x42>
     e02:	50 f0       	brcs	.+20     	; 0xe18 <Timer2_Init+0x4a>
     e04:	92 30       	cpi	r25, 0x02	; 2
     e06:	31 f0       	breq	.+12     	; 0xe14 <Timer2_Init+0x46>
     e08:	93 30       	cpi	r25, 0x03	; 3
     e0a:	31 f4       	brne	.+12     	; 0xe18 <Timer2_Init+0x4a>
     e0c:	98 ec       	ldi	r25, 0xC8	; 200
     e0e:	05 c0       	rjmp	.+10     	; 0xe1a <Timer2_Init+0x4c>
     e10:	90 ec       	ldi	r25, 0xC0	; 192
     e12:	03 c0       	rjmp	.+6      	; 0xe1a <Timer2_Init+0x4c>
     e14:	98 e8       	ldi	r25, 0x88	; 136
     e16:	01 c0       	rjmp	.+2      	; 0xe1a <Timer2_Init+0x4c>
     e18:	90 e8       	ldi	r25, 0x80	; 128
     e1a:	95 bd       	out	0x25, r25	; 37
     e1c:	95 b5       	in	r25, 0x25	; 37
     e1e:	9f 7c       	andi	r25, 0xCF	; 207
     e20:	95 bd       	out	0x25, r25	; 37
     e22:	80 7f       	andi	r24, 0xF0	; 240
     e24:	80 34       	cpi	r24, 0x40	; 64
     e26:	39 f0       	breq	.+14     	; 0xe36 <Timer2_Init+0x68>
     e28:	80 38       	cpi	r24, 0x80	; 128
     e2a:	41 f0       	breq	.+16     	; 0xe3c <Timer2_Init+0x6e>
     e2c:	80 32       	cpi	r24, 0x20	; 32
     e2e:	51 f4       	brne	.+20     	; 0xe44 <Timer2_Init+0x76>
     e30:	85 b5       	in	r24, 0x25	; 37
     e32:	80 61       	ori	r24, 0x10	; 16
     e34:	05 c0       	rjmp	.+10     	; 0xe40 <Timer2_Init+0x72>
     e36:	85 b5       	in	r24, 0x25	; 37
     e38:	80 62       	ori	r24, 0x20	; 32
     e3a:	02 c0       	rjmp	.+4      	; 0xe40 <Timer2_Init+0x72>
     e3c:	85 b5       	in	r24, 0x25	; 37
     e3e:	80 63       	ori	r24, 0x30	; 48
     e40:	85 bd       	out	0x25, r24	; 37
     e42:	bf 9a       	sbi	0x17, 7	; 23
     e44:	cb 01       	movw	r24, r22
     e46:	ba 01       	movw	r22, r20
     e48:	0f 90       	pop	r0
     e4a:	0f 90       	pop	r0
     e4c:	0f 90       	pop	r0
     e4e:	0f 90       	pop	r0
     e50:	0f 90       	pop	r0
     e52:	df 91       	pop	r29
     e54:	cf 91       	pop	r28
     e56:	0c 94 73 06 	jmp	0xce6	; 0xce6 <Timer2_SetTime>

00000e5a <Timer2_SetCmpMatch>:
     e5a:	0c 94 73 06 	jmp	0xce6	; 0xce6 <Timer2_SetTime>

00000e5e <Timer2_CbOverflow>:
     e5e:	9c 01       	movw	r18, r24
     e60:	97 b7       	in	r25, 0x37	; 55
     e62:	9f 7b       	andi	r25, 0xBF	; 191
     e64:	97 bf       	out	0x37, r25	; 55
     e66:	30 93 6d 01 	sts	0x016D, r19	; 0x80016d <_Timer2_OVF_ISR+0x1>
     e6a:	20 93 6c 01 	sts	0x016C, r18	; 0x80016c <_Timer2_OVF_ISR>
     e6e:	23 2b       	or	r18, r19
     e70:	21 f0       	breq	.+8      	; 0xe7a <Timer2_CbOverflow+0x1c>
     e72:	87 b7       	in	r24, 0x37	; 55
     e74:	80 64       	ori	r24, 0x40	; 64
     e76:	87 bf       	out	0x37, r24	; 55
     e78:	78 94       	sei
     e7a:	08 95       	ret

00000e7c <Timer2_CbCmpMatch>:
     e7c:	9c 01       	movw	r18, r24
     e7e:	97 b7       	in	r25, 0x37	; 55
     e80:	9f 77       	andi	r25, 0x7F	; 127
     e82:	97 bf       	out	0x37, r25	; 55
     e84:	30 93 6f 01 	sts	0x016F, r19	; 0x80016f <_Timer2_CMP_ISR+0x1>
     e88:	20 93 6e 01 	sts	0x016E, r18	; 0x80016e <_Timer2_CMP_ISR>
     e8c:	23 2b       	or	r18, r19
     e8e:	21 f0       	breq	.+8      	; 0xe98 <Timer2_CbCmpMatch+0x1c>
     e90:	87 b7       	in	r24, 0x37	; 55
     e92:	80 68       	ori	r24, 0x80	; 128
     e94:	87 bf       	out	0x37, r24	; 55
     e96:	78 94       	sei
     e98:	08 95       	ret

00000e9a <Timer2_IsOverflow>:
     e9a:	96 b7       	in	r25, 0x36	; 54
     e9c:	96 fb       	bst	r25, 6
     e9e:	88 27       	eor	r24, r24
     ea0:	80 f9       	bld	r24, 0
     ea2:	96 ff       	sbrs	r25, 6
     ea4:	03 c0       	rjmp	.+6      	; 0xeac <Timer2_IsOverflow+0x12>
     ea6:	96 b7       	in	r25, 0x36	; 54
     ea8:	90 64       	ori	r25, 0x40	; 64
     eaa:	96 bf       	out	0x36, r25	; 54
     eac:	08 95       	ret

00000eae <Timer2_IsCmpMatch>:
     eae:	86 b7       	in	r24, 0x36	; 54
     eb0:	88 1f       	adc	r24, r24
     eb2:	88 27       	eor	r24, r24
     eb4:	88 1f       	adc	r24, r24
     eb6:	19 f0       	breq	.+6      	; 0xebe <Timer2_IsCmpMatch+0x10>
     eb8:	96 b7       	in	r25, 0x36	; 54
     eba:	90 68       	ori	r25, 0x80	; 128
     ebc:	96 bf       	out	0x36, r25	; 54
     ebe:	08 95       	ret

00000ec0 <Timer3_Start>:
     ec0:	ea e8       	ldi	r30, 0x8A	; 138
     ec2:	f0 e0       	ldi	r31, 0x00	; 0
     ec4:	80 81       	ld	r24, Z
     ec6:	88 7f       	andi	r24, 0xF8	; 248
     ec8:	80 83       	st	Z, r24
     eca:	10 92 89 00 	sts	0x0089, r1	; 0x800089 <__TEXT_REGION_LENGTH__+0x7e0089>
     ece:	10 92 88 00 	sts	0x0088, r1	; 0x800088 <__TEXT_REGION_LENGTH__+0x7e0088>
     ed2:	90 81       	ld	r25, Z
     ed4:	80 91 5e 01 	lds	r24, 0x015E	; 0x80015e <_Timer3_prsc>
     ed8:	89 2b       	or	r24, r25
     eda:	80 83       	st	Z, r24
     edc:	08 95       	ret

00000ede <Timer3_Reset>:
     ede:	10 92 89 00 	sts	0x0089, r1	; 0x800089 <__TEXT_REGION_LENGTH__+0x7e0089>
     ee2:	10 92 88 00 	sts	0x0088, r1	; 0x800088 <__TEXT_REGION_LENGTH__+0x7e0088>
     ee6:	08 95       	ret

00000ee8 <Timer3_Stop>:
     ee8:	ea e8       	ldi	r30, 0x8A	; 138
     eea:	f0 e0       	ldi	r31, 0x00	; 0
     eec:	80 81       	ld	r24, Z
     eee:	88 7f       	andi	r24, 0xF8	; 248
     ef0:	80 83       	st	Z, r24
     ef2:	08 95       	ret

00000ef4 <Timer3_Count>:
     ef4:	cf 93       	push	r28
     ef6:	df 93       	push	r29
     ef8:	cd b7       	in	r28, 0x3d	; 61
     efa:	de b7       	in	r29, 0x3e	; 62
     efc:	a0 97       	sbiw	r28, 0x20	; 32
     efe:	0f b6       	in	r0, 0x3f	; 63
     f00:	f8 94       	cli
     f02:	de bf       	out	0x3e, r29	; 62
     f04:	0f be       	out	0x3f, r0	; 63
     f06:	cd bf       	out	0x3d, r28	; 61
     f08:	80 e2       	ldi	r24, 0x20	; 32
     f0a:	ec e3       	ldi	r30, 0x3C	; 60
     f0c:	f1 e0       	ldi	r31, 0x01	; 1
     f0e:	de 01       	movw	r26, r28
     f10:	11 96       	adiw	r26, 0x01	; 1
     f12:	01 90       	ld	r0, Z+
     f14:	0d 92       	st	X+, r0
     f16:	8a 95       	dec	r24
     f18:	e1 f7       	brne	.-8      	; 0xf12 <Timer3_Count+0x1e>
     f1a:	60 91 88 00 	lds	r22, 0x0088	; 0x800088 <__TEXT_REGION_LENGTH__+0x7e0088>
     f1e:	70 91 89 00 	lds	r23, 0x0089	; 0x800089 <__TEXT_REGION_LENGTH__+0x7e0089>
     f22:	cb 01       	movw	r24, r22
     f24:	a0 e0       	ldi	r26, 0x00	; 0
     f26:	b0 e0       	ldi	r27, 0x00	; 0
     f28:	20 91 5e 01 	lds	r18, 0x015E	; 0x80015e <_Timer3_prsc>
     f2c:	e1 e0       	ldi	r30, 0x01	; 1
     f2e:	f0 e0       	ldi	r31, 0x00	; 0
     f30:	ec 0f       	add	r30, r28
     f32:	fd 1f       	adc	r31, r29
     f34:	34 e0       	ldi	r19, 0x04	; 4
     f36:	23 9f       	mul	r18, r19
     f38:	e0 0d       	add	r30, r0
     f3a:	f1 1d       	adc	r31, r1
     f3c:	11 24       	eor	r1, r1
     f3e:	bc 01       	movw	r22, r24
     f40:	cd 01       	movw	r24, r26
     f42:	00 80       	ld	r0, Z
     f44:	04 c0       	rjmp	.+8      	; 0xf4e <Timer3_Count+0x5a>
     f46:	66 0f       	add	r22, r22
     f48:	77 1f       	adc	r23, r23
     f4a:	88 1f       	adc	r24, r24
     f4c:	99 1f       	adc	r25, r25
     f4e:	0a 94       	dec	r0
     f50:	d2 f7       	brpl	.-12     	; 0xf46 <Timer3_Count+0x52>
     f52:	a0 96       	adiw	r28, 0x20	; 32
     f54:	0f b6       	in	r0, 0x3f	; 63
     f56:	f8 94       	cli
     f58:	de bf       	out	0x3e, r29	; 62
     f5a:	0f be       	out	0x3f, r0	; 63
     f5c:	cd bf       	out	0x3d, r28	; 61
     f5e:	df 91       	pop	r29
     f60:	cf 91       	pop	r28
     f62:	08 95       	ret

00000f64 <Timer3_SetDc>:
     f64:	68 2f       	mov	r22, r24
     f66:	70 e0       	ldi	r23, 0x00	; 0
     f68:	80 e0       	ldi	r24, 0x00	; 0
     f6a:	90 e0       	ldi	r25, 0x00	; 0
     f6c:	0e 94 6a 0c 	call	0x18d4	; 0x18d4 <__floatsisf>
     f70:	23 e3       	ldi	r18, 0x33	; 51
     f72:	33 e3       	ldi	r19, 0x33	; 51
     f74:	43 e2       	ldi	r20, 0x23	; 35
     f76:	50 e4       	ldi	r21, 0x40	; 64
     f78:	0e 94 ce 0c 	call	0x199c	; 0x199c <__mulsf3>
     f7c:	0e 94 39 0c 	call	0x1872	; 0x1872 <__fixunssfsi>
     f80:	70 93 87 00 	sts	0x0087, r23	; 0x800087 <__TEXT_REGION_LENGTH__+0x7e0087>
     f84:	60 93 86 00 	sts	0x0086, r22	; 0x800086 <__TEXT_REGION_LENGTH__+0x7e0086>
     f88:	20 91 88 00 	lds	r18, 0x0088	; 0x800088 <__TEXT_REGION_LENGTH__+0x7e0088>
     f8c:	30 91 89 00 	lds	r19, 0x0089	; 0x800089 <__TEXT_REGION_LENGTH__+0x7e0089>
     f90:	80 91 86 00 	lds	r24, 0x0086	; 0x800086 <__TEXT_REGION_LENGTH__+0x7e0086>
     f94:	90 91 87 00 	lds	r25, 0x0087	; 0x800087 <__TEXT_REGION_LENGTH__+0x7e0087>
     f98:	82 17       	cp	r24, r18
     f9a:	93 07       	cpc	r25, r19
     f9c:	48 f4       	brcc	.+18     	; 0xfb0 <Timer3_SetDc+0x4c>
     f9e:	80 91 86 00 	lds	r24, 0x0086	; 0x800086 <__TEXT_REGION_LENGTH__+0x7e0086>
     fa2:	90 91 87 00 	lds	r25, 0x0087	; 0x800087 <__TEXT_REGION_LENGTH__+0x7e0087>
     fa6:	01 97       	sbiw	r24, 0x01	; 1
     fa8:	90 93 89 00 	sts	0x0089, r25	; 0x800089 <__TEXT_REGION_LENGTH__+0x7e0089>
     fac:	80 93 88 00 	sts	0x0088, r24	; 0x800088 <__TEXT_REGION_LENGTH__+0x7e0088>
     fb0:	08 95       	ret

00000fb2 <Timer3_SetTime>:
     fb2:	cf 93       	push	r28
     fb4:	df 93       	push	r29
     fb6:	00 d0       	rcall	.+0      	; 0xfb8 <Timer3_SetTime+0x6>
     fb8:	00 d0       	rcall	.+0      	; 0xfba <Timer3_SetTime+0x8>
     fba:	cd b7       	in	r28, 0x3d	; 61
     fbc:	de b7       	in	r29, 0x3e	; 62
     fbe:	61 15       	cp	r22, r1
     fc0:	71 05       	cpc	r23, r1
     fc2:	21 e0       	ldi	r18, 0x01	; 1
     fc4:	82 07       	cpc	r24, r18
     fc6:	91 05       	cpc	r25, r1
     fc8:	10 f4       	brcc	.+4      	; 0xfce <Timer3_SetTime+0x1c>
     fca:	21 e0       	ldi	r18, 0x01	; 1
     fcc:	34 c0       	rjmp	.+104    	; 0x1036 <Timer3_SetTime+0x84>
     fce:	69 3f       	cpi	r22, 0xF9	; 249
     fd0:	2f ef       	ldi	r18, 0xFF	; 255
     fd2:	72 07       	cpc	r23, r18
     fd4:	27 e0       	ldi	r18, 0x07	; 7
     fd6:	82 07       	cpc	r24, r18
     fd8:	91 05       	cpc	r25, r1
     fda:	48 f4       	brcc	.+18     	; 0xfee <Timer3_SetTime+0x3c>
     fdc:	53 e0       	ldi	r21, 0x03	; 3
     fde:	96 95       	lsr	r25
     fe0:	87 95       	ror	r24
     fe2:	77 95       	ror	r23
     fe4:	67 95       	ror	r22
     fe6:	5a 95       	dec	r21
     fe8:	d1 f7       	brne	.-12     	; 0xfde <Timer3_SetTime+0x2c>
     fea:	22 e0       	ldi	r18, 0x02	; 2
     fec:	24 c0       	rjmp	.+72     	; 0x1036 <Timer3_SetTime+0x84>
     fee:	61 3c       	cpi	r22, 0xC1	; 193
     ff0:	2f ef       	ldi	r18, 0xFF	; 255
     ff2:	72 07       	cpc	r23, r18
     ff4:	2f e3       	ldi	r18, 0x3F	; 63
     ff6:	82 07       	cpc	r24, r18
     ff8:	91 05       	cpc	r25, r1
     ffa:	48 f4       	brcc	.+18     	; 0x100e <Timer3_SetTime+0x5c>
     ffc:	46 e0       	ldi	r20, 0x06	; 6
     ffe:	96 95       	lsr	r25
    1000:	87 95       	ror	r24
    1002:	77 95       	ror	r23
    1004:	67 95       	ror	r22
    1006:	4a 95       	dec	r20
    1008:	d1 f7       	brne	.-12     	; 0xffe <Timer3_SetTime+0x4c>
    100a:	23 e0       	ldi	r18, 0x03	; 3
    100c:	14 c0       	rjmp	.+40     	; 0x1036 <Timer3_SetTime+0x84>
    100e:	61 30       	cpi	r22, 0x01	; 1
    1010:	2f ef       	ldi	r18, 0xFF	; 255
    1012:	72 07       	cpc	r23, r18
    1014:	82 07       	cpc	r24, r18
    1016:	91 05       	cpc	r25, r1
    1018:	30 f4       	brcc	.+12     	; 0x1026 <Timer3_SetTime+0x74>
    101a:	67 2f       	mov	r22, r23
    101c:	78 2f       	mov	r23, r24
    101e:	89 2f       	mov	r24, r25
    1020:	99 27       	eor	r25, r25
    1022:	24 e0       	ldi	r18, 0x04	; 4
    1024:	08 c0       	rjmp	.+16     	; 0x1036 <Timer3_SetTime+0x84>
    1026:	2a e0       	ldi	r18, 0x0A	; 10
    1028:	96 95       	lsr	r25
    102a:	87 95       	ror	r24
    102c:	77 95       	ror	r23
    102e:	67 95       	ror	r22
    1030:	2a 95       	dec	r18
    1032:	d1 f7       	brne	.-12     	; 0x1028 <Timer3_SetTime+0x76>
    1034:	25 e0       	ldi	r18, 0x05	; 5
    1036:	20 93 5e 01 	sts	0x015E, r18	; 0x80015e <_Timer3_prsc>
    103a:	69 83       	std	Y+1, r22	; 0x01
    103c:	7a 83       	std	Y+2, r23	; 0x02
    103e:	8b 83       	std	Y+3, r24	; 0x03
    1040:	9c 83       	std	Y+4, r25	; 0x04
    1042:	0e 94 74 07 	call	0xee8	; 0xee8 <Timer3_Stop>
    1046:	69 81       	ldd	r22, Y+1	; 0x01
    1048:	7a 81       	ldd	r23, Y+2	; 0x02
    104a:	70 93 87 00 	sts	0x0087, r23	; 0x800087 <__TEXT_REGION_LENGTH__+0x7e0087>
    104e:	60 93 86 00 	sts	0x0086, r22	; 0x800086 <__TEXT_REGION_LENGTH__+0x7e0086>
    1052:	90 91 8a 00 	lds	r25, 0x008A	; 0x80008a <__TEXT_REGION_LENGTH__+0x7e008a>
    1056:	80 91 5e 01 	lds	r24, 0x015E	; 0x80015e <_Timer3_prsc>
    105a:	89 2b       	or	r24, r25
    105c:	80 93 8a 00 	sts	0x008A, r24	; 0x80008a <__TEXT_REGION_LENGTH__+0x7e008a>
    1060:	0f 90       	pop	r0
    1062:	0f 90       	pop	r0
    1064:	0f 90       	pop	r0
    1066:	0f 90       	pop	r0
    1068:	df 91       	pop	r29
    106a:	cf 91       	pop	r28
    106c:	08 95       	ret

0000106e <Timer3_Init>:
    106e:	cf 93       	push	r28
    1070:	df 93       	push	r29
    1072:	00 d0       	rcall	.+0      	; 0x1074 <Timer3_Init+0x6>
    1074:	00 d0       	rcall	.+0      	; 0x1076 <Timer3_Init+0x8>
    1076:	1f 92       	push	r1
    1078:	cd b7       	in	r28, 0x3d	; 61
    107a:	de b7       	in	r29, 0x3e	; 62
    107c:	4a 83       	std	Y+2, r20	; 0x02
    107e:	5b 83       	std	Y+3, r21	; 0x03
    1080:	6c 83       	std	Y+4, r22	; 0x04
    1082:	7d 83       	std	Y+5, r23	; 0x05
    1084:	89 83       	std	Y+1, r24	; 0x01
    1086:	0e 94 74 07 	call	0xee8	; 0xee8 <Timer3_Stop>
    108a:	96 b7       	in	r25, 0x36	; 54
    108c:	9c 63       	ori	r25, 0x3C	; 60
    108e:	96 bf       	out	0x36, r25	; 54
    1090:	89 81       	ldd	r24, Y+1	; 0x01
    1092:	98 2f       	mov	r25, r24
    1094:	9f 70       	andi	r25, 0x0F	; 15
    1096:	4a 81       	ldd	r20, Y+2	; 0x02
    1098:	5b 81       	ldd	r21, Y+3	; 0x03
    109a:	6c 81       	ldd	r22, Y+4	; 0x04
    109c:	7d 81       	ldd	r23, Y+5	; 0x05
    109e:	91 30       	cpi	r25, 0x01	; 1
    10a0:	49 f0       	breq	.+18     	; 0x10b4 <Timer3_Init+0x46>
    10a2:	90 f0       	brcs	.+36     	; 0x10c8 <Timer3_Init+0x5a>
    10a4:	92 30       	cpi	r25, 0x02	; 2
    10a6:	59 f0       	breq	.+22     	; 0x10be <Timer3_Init+0x50>
    10a8:	93 30       	cpi	r25, 0x03	; 3
    10aa:	71 f4       	brne	.+28     	; 0x10c8 <Timer3_Init+0x5a>
    10ac:	90 93 8b 00 	sts	0x008B, r25	; 0x80008b <__TEXT_REGION_LENGTH__+0x7e008b>
    10b0:	98 e1       	ldi	r25, 0x18	; 24
    10b2:	08 c0       	rjmp	.+16     	; 0x10c4 <Timer3_Init+0x56>
    10b4:	93 e0       	ldi	r25, 0x03	; 3
    10b6:	90 93 8b 00 	sts	0x008B, r25	; 0x80008b <__TEXT_REGION_LENGTH__+0x7e008b>
    10ba:	90 e1       	ldi	r25, 0x10	; 16
    10bc:	03 c0       	rjmp	.+6      	; 0x10c4 <Timer3_Init+0x56>
    10be:	10 92 8b 00 	sts	0x008B, r1	; 0x80008b <__TEXT_REGION_LENGTH__+0x7e008b>
    10c2:	98 e0       	ldi	r25, 0x08	; 8
    10c4:	9e bd       	out	0x2e, r25	; 46
    10c6:	03 c0       	rjmp	.+6      	; 0x10ce <Timer3_Init+0x60>
    10c8:	10 92 8b 00 	sts	0x008B, r1	; 0x80008b <__TEXT_REGION_LENGTH__+0x7e008b>
    10cc:	1e bc       	out	0x2e, r1	; 46
    10ce:	90 91 8b 00 	lds	r25, 0x008B	; 0x80008b <__TEXT_REGION_LENGTH__+0x7e008b>
    10d2:	9f 70       	andi	r25, 0x0F	; 15
    10d4:	90 93 8b 00 	sts	0x008B, r25	; 0x80008b <__TEXT_REGION_LENGTH__+0x7e008b>
    10d8:	80 7f       	andi	r24, 0xF0	; 240
    10da:	80 34       	cpi	r24, 0x40	; 64
    10dc:	41 f0       	breq	.+16     	; 0x10ee <Timer3_Init+0x80>
    10de:	80 38       	cpi	r24, 0x80	; 128
    10e0:	51 f0       	breq	.+20     	; 0x10f6 <Timer3_Init+0x88>
    10e2:	80 32       	cpi	r24, 0x20	; 32
    10e4:	71 f4       	brne	.+28     	; 0x1102 <__stack+0x3>
    10e6:	80 91 8b 00 	lds	r24, 0x008B	; 0x80008b <__TEXT_REGION_LENGTH__+0x7e008b>
    10ea:	80 64       	ori	r24, 0x40	; 64
    10ec:	07 c0       	rjmp	.+14     	; 0x10fc <Timer3_Init+0x8e>
    10ee:	80 91 8b 00 	lds	r24, 0x008B	; 0x80008b <__TEXT_REGION_LENGTH__+0x7e008b>
    10f2:	80 68       	ori	r24, 0x80	; 128
    10f4:	03 c0       	rjmp	.+6      	; 0x10fc <Timer3_Init+0x8e>
    10f6:	80 91 8b 00 	lds	r24, 0x008B	; 0x80008b <__TEXT_REGION_LENGTH__+0x7e008b>
    10fa:	80 6c       	ori	r24, 0xC0	; 192
    10fc:	80 93 8b 00 	sts	0x008B, r24	; 0x80008b <__TEXT_REGION_LENGTH__+0x7e008b>
    1100:	13 9a       	sbi	0x02, 3	; 2
    1102:	cb 01       	movw	r24, r22
    1104:	ba 01       	movw	r22, r20
    1106:	0f 90       	pop	r0
    1108:	0f 90       	pop	r0
    110a:	0f 90       	pop	r0
    110c:	0f 90       	pop	r0
    110e:	0f 90       	pop	r0
    1110:	df 91       	pop	r29
    1112:	cf 91       	pop	r28
    1114:	0c 94 d9 07 	jmp	0xfb2	; 0xfb2 <Timer3_SetTime>

00001118 <Timer3_SetCmpMatch>:
    1118:	0c 94 d9 07 	jmp	0xfb2	; 0xfb2 <Timer3_SetTime>

0000111c <Timer3_CbOverflow>:
    111c:	9c 01       	movw	r18, r24
    111e:	97 b7       	in	r25, 0x37	; 55
    1120:	9b 7f       	andi	r25, 0xFB	; 251
    1122:	97 bf       	out	0x37, r25	; 55
    1124:	30 93 6b 01 	sts	0x016B, r19	; 0x80016b <_Timer3_OVF_ISR+0x1>
    1128:	20 93 6a 01 	sts	0x016A, r18	; 0x80016a <_Timer3_OVF_ISR>
    112c:	23 2b       	or	r18, r19
    112e:	21 f0       	breq	.+8      	; 0x1138 <Timer3_CbOverflow+0x1c>
    1130:	87 b7       	in	r24, 0x37	; 55
    1132:	84 60       	ori	r24, 0x04	; 4
    1134:	87 bf       	out	0x37, r24	; 55
    1136:	78 94       	sei
    1138:	08 95       	ret

0000113a <Timer3_CbCmpMatch>:
    113a:	9c 01       	movw	r18, r24
    113c:	97 b7       	in	r25, 0x37	; 55
    113e:	9f 7e       	andi	r25, 0xEF	; 239
    1140:	97 bf       	out	0x37, r25	; 55
    1142:	30 93 69 01 	sts	0x0169, r19	; 0x800169 <_Timer3_CMPA_ISR+0x1>
    1146:	20 93 68 01 	sts	0x0168, r18	; 0x800168 <_Timer3_CMPA_ISR>
    114a:	23 2b       	or	r18, r19
    114c:	21 f0       	breq	.+8      	; 0x1156 <Timer3_CbCmpMatch+0x1c>
    114e:	87 b7       	in	r24, 0x37	; 55
    1150:	80 61       	ori	r24, 0x10	; 16
    1152:	87 bf       	out	0x37, r24	; 55
    1154:	78 94       	sei
    1156:	08 95       	ret

00001158 <Timer3_CbCapture>:
    1158:	9c 01       	movw	r18, r24
    115a:	97 b7       	in	r25, 0x37	; 55
    115c:	9f 7d       	andi	r25, 0xDF	; 223
    115e:	97 bf       	out	0x37, r25	; 55
    1160:	30 93 63 01 	sts	0x0163, r19	; 0x800163 <_Timer3_CPT_ISR+0x1>
    1164:	20 93 62 01 	sts	0x0162, r18	; 0x800162 <_Timer3_CPT_ISR>
    1168:	23 2b       	or	r18, r19
    116a:	21 f0       	breq	.+8      	; 0x1174 <Timer3_CbCapture+0x1c>
    116c:	87 b7       	in	r24, 0x37	; 55
    116e:	80 62       	ori	r24, 0x20	; 32
    1170:	87 bf       	out	0x37, r24	; 55
    1172:	78 94       	sei
    1174:	08 95       	ret

00001176 <Timer3_IsOverflow>:
    1176:	96 b7       	in	r25, 0x36	; 54
    1178:	92 fb       	bst	r25, 2
    117a:	88 27       	eor	r24, r24
    117c:	80 f9       	bld	r24, 0
    117e:	92 ff       	sbrs	r25, 2
    1180:	03 c0       	rjmp	.+6      	; 0x1188 <Timer3_IsOverflow+0x12>
    1182:	96 b7       	in	r25, 0x36	; 54
    1184:	94 60       	ori	r25, 0x04	; 4
    1186:	96 bf       	out	0x36, r25	; 54
    1188:	08 95       	ret

0000118a <Timer3_IsCmpMatch>:
    118a:	96 b7       	in	r25, 0x36	; 54
    118c:	94 fb       	bst	r25, 4
    118e:	88 27       	eor	r24, r24
    1190:	80 f9       	bld	r24, 0
    1192:	94 ff       	sbrs	r25, 4
    1194:	03 c0       	rjmp	.+6      	; 0x119c <Timer3_IsCmpMatch+0x12>
    1196:	96 b7       	in	r25, 0x36	; 54
    1198:	90 61       	ori	r25, 0x10	; 16
    119a:	96 bf       	out	0x36, r25	; 54
    119c:	08 95       	ret

0000119e <Timer3_IsCapture>:
    119e:	96 b7       	in	r25, 0x36	; 54
    11a0:	95 fb       	bst	r25, 5
    11a2:	88 27       	eor	r24, r24
    11a4:	80 f9       	bld	r24, 0
    11a6:	95 ff       	sbrs	r25, 5
    11a8:	03 c0       	rjmp	.+6      	; 0x11b0 <Timer3_IsCapture+0x12>
    11aa:	96 b7       	in	r25, 0x36	; 54
    11ac:	90 62       	ori	r25, 0x20	; 32
    11ae:	96 bf       	out	0x36, r25	; 54
    11b0:	08 95       	ret

000011b2 <__vector_18>:
    11b2:	1f 92       	push	r1
    11b4:	0f 92       	push	r0
    11b6:	0f b6       	in	r0, 0x3f	; 63
    11b8:	0f 92       	push	r0
    11ba:	11 24       	eor	r1, r1
    11bc:	0b b6       	in	r0, 0x3b	; 59
    11be:	0f 92       	push	r0
    11c0:	2f 93       	push	r18
    11c2:	3f 93       	push	r19
    11c4:	4f 93       	push	r20
    11c6:	5f 93       	push	r21
    11c8:	6f 93       	push	r22
    11ca:	7f 93       	push	r23
    11cc:	8f 93       	push	r24
    11ce:	9f 93       	push	r25
    11d0:	af 93       	push	r26
    11d2:	bf 93       	push	r27
    11d4:	ef 93       	push	r30
    11d6:	ff 93       	push	r31
    11d8:	8c b1       	in	r24, 0x0c	; 12
    11da:	e0 91 80 01 	lds	r30, 0x0180	; 0x800180 <_Uart0ReceiveCallback>
    11de:	f0 91 81 01 	lds	r31, 0x0181	; 0x800181 <_Uart0ReceiveCallback+0x1>
    11e2:	09 95       	icall
    11e4:	ff 91       	pop	r31
    11e6:	ef 91       	pop	r30
    11e8:	bf 91       	pop	r27
    11ea:	af 91       	pop	r26
    11ec:	9f 91       	pop	r25
    11ee:	8f 91       	pop	r24
    11f0:	7f 91       	pop	r23
    11f2:	6f 91       	pop	r22
    11f4:	5f 91       	pop	r21
    11f6:	4f 91       	pop	r20
    11f8:	3f 91       	pop	r19
    11fa:	2f 91       	pop	r18
    11fc:	0f 90       	pop	r0
    11fe:	0b be       	out	0x3b, r0	; 59
    1200:	0f 90       	pop	r0
    1202:	0f be       	out	0x3f, r0	; 63
    1204:	0f 90       	pop	r0
    1206:	1f 90       	pop	r1
    1208:	18 95       	reti

0000120a <__vector_30>:
    120a:	1f 92       	push	r1
    120c:	0f 92       	push	r0
    120e:	0f b6       	in	r0, 0x3f	; 63
    1210:	0f 92       	push	r0
    1212:	11 24       	eor	r1, r1
    1214:	0b b6       	in	r0, 0x3b	; 59
    1216:	0f 92       	push	r0
    1218:	2f 93       	push	r18
    121a:	3f 93       	push	r19
    121c:	4f 93       	push	r20
    121e:	5f 93       	push	r21
    1220:	6f 93       	push	r22
    1222:	7f 93       	push	r23
    1224:	8f 93       	push	r24
    1226:	9f 93       	push	r25
    1228:	af 93       	push	r26
    122a:	bf 93       	push	r27
    122c:	ef 93       	push	r30
    122e:	ff 93       	push	r31
    1230:	80 91 9c 00 	lds	r24, 0x009C	; 0x80009c <__TEXT_REGION_LENGTH__+0x7e009c>
    1234:	e0 91 7e 01 	lds	r30, 0x017E	; 0x80017e <_Uart1ReceiveCallback>
    1238:	f0 91 7f 01 	lds	r31, 0x017F	; 0x80017f <_Uart1ReceiveCallback+0x1>
    123c:	09 95       	icall
    123e:	ff 91       	pop	r31
    1240:	ef 91       	pop	r30
    1242:	bf 91       	pop	r27
    1244:	af 91       	pop	r26
    1246:	9f 91       	pop	r25
    1248:	8f 91       	pop	r24
    124a:	7f 91       	pop	r23
    124c:	6f 91       	pop	r22
    124e:	5f 91       	pop	r21
    1250:	4f 91       	pop	r20
    1252:	3f 91       	pop	r19
    1254:	2f 91       	pop	r18
    1256:	0f 90       	pop	r0
    1258:	0b be       	out	0x3b, r0	; 59
    125a:	0f 90       	pop	r0
    125c:	0f be       	out	0x3f, r0	; 63
    125e:	0f 90       	pop	r0
    1260:	1f 90       	pop	r1
    1262:	18 95       	reti

00001264 <Uart0_Init>:
    1264:	9b 01       	movw	r18, r22
    1266:	ac 01       	movw	r20, r24
    1268:	8a b1       	in	r24, 0x0a	; 10
    126a:	87 7e       	andi	r24, 0xE7	; 231
    126c:	8a b9       	out	0x0a, r24	; 10
    126e:	59 9a       	sbi	0x0b, 1	; 11
    1270:	60 e8       	ldi	r22, 0x80	; 128
    1272:	74 e8       	ldi	r23, 0x84	; 132
    1274:	8e e1       	ldi	r24, 0x1E	; 30
    1276:	90 e0       	ldi	r25, 0x00	; 0
    1278:	0e 94 17 0c 	call	0x182e	; 0x182e <__udivmodsi4>
    127c:	ba 01       	movw	r22, r20
    127e:	a9 01       	movw	r20, r18
    1280:	41 50       	subi	r20, 0x01	; 1
    1282:	51 09       	sbc	r21, r1
    1284:	61 09       	sbc	r22, r1
    1286:	71 09       	sbc	r23, r1
    1288:	bb 27       	eor	r27, r27
    128a:	a7 2f       	mov	r26, r23
    128c:	96 2f       	mov	r25, r22
    128e:	85 2f       	mov	r24, r21
    1290:	80 93 90 00 	sts	0x0090, r24	; 0x800090 <__TEXT_REGION_LENGTH__+0x7e0090>
    1294:	49 b9       	out	0x09, r20	; 9
    1296:	e5 e9       	ldi	r30, 0x95	; 149
    1298:	f0 e0       	ldi	r31, 0x00	; 0
    129a:	80 81       	ld	r24, Z
    129c:	82 60       	ori	r24, 0x02	; 2
    129e:	80 83       	st	Z, r24
    12a0:	8a b1       	in	r24, 0x0a	; 10
    12a2:	88 61       	ori	r24, 0x18	; 24
    12a4:	8a b9       	out	0x0a, r24	; 10
    12a6:	08 95       	ret

000012a8 <Uart0_CbRecv>:
    12a8:	90 93 81 01 	sts	0x0181, r25	; 0x800181 <_Uart0ReceiveCallback+0x1>
    12ac:	80 93 80 01 	sts	0x0180, r24	; 0x800180 <_Uart0ReceiveCallback>
    12b0:	89 2b       	or	r24, r25
    12b2:	19 f0       	breq	.+6      	; 0x12ba <Uart0_CbRecv+0x12>
    12b4:	57 9a       	sbi	0x0a, 7	; 10
    12b6:	78 94       	sei
    12b8:	08 95       	ret
    12ba:	57 98       	cbi	0x0a, 7	; 10
    12bc:	08 95       	ret

000012be <Uart0_PutC>:
    12be:	5d 9b       	sbis	0x0b, 5	; 11
    12c0:	fe cf       	rjmp	.-4      	; 0x12be <Uart0_PutC>
    12c2:	8c b9       	out	0x0c, r24	; 12
    12c4:	08 95       	ret

000012c6 <Uart0_PutA>:
    12c6:	cf 92       	push	r12
    12c8:	df 92       	push	r13
    12ca:	ef 92       	push	r14
    12cc:	ff 92       	push	r15
    12ce:	0f 93       	push	r16
    12d0:	1f 93       	push	r17
    12d2:	cf 93       	push	r28
    12d4:	df 93       	push	r29
    12d6:	00 d0       	rcall	.+0      	; 0x12d8 <Uart0_PutA+0x12>
    12d8:	00 d0       	rcall	.+0      	; 0x12da <Uart0_PutA+0x14>
    12da:	cd b7       	in	r28, 0x3d	; 61
    12dc:	de b7       	in	r29, 0x3e	; 62
    12de:	8c 01       	movw	r16, r24
    12e0:	c1 2c       	mov	r12, r1
    12e2:	d1 2c       	mov	r13, r1
    12e4:	76 01       	movw	r14, r12
    12e6:	c4 16       	cp	r12, r20
    12e8:	d5 06       	cpc	r13, r21
    12ea:	e6 06       	cpc	r14, r22
    12ec:	f7 06       	cpc	r15, r23
    12ee:	99 f0       	breq	.+38     	; 0x1316 <Uart0_PutA+0x50>
    12f0:	8f ef       	ldi	r24, 0xFF	; 255
    12f2:	c8 1a       	sub	r12, r24
    12f4:	d8 0a       	sbc	r13, r24
    12f6:	e8 0a       	sbc	r14, r24
    12f8:	f8 0a       	sbc	r15, r24
    12fa:	f8 01       	movw	r30, r16
    12fc:	81 91       	ld	r24, Z+
    12fe:	8f 01       	movw	r16, r30
    1300:	49 83       	std	Y+1, r20	; 0x01
    1302:	5a 83       	std	Y+2, r21	; 0x02
    1304:	6b 83       	std	Y+3, r22	; 0x03
    1306:	7c 83       	std	Y+4, r23	; 0x04
    1308:	0e 94 5f 09 	call	0x12be	; 0x12be <Uart0_PutC>
    130c:	7c 81       	ldd	r23, Y+4	; 0x04
    130e:	6b 81       	ldd	r22, Y+3	; 0x03
    1310:	5a 81       	ldd	r21, Y+2	; 0x02
    1312:	49 81       	ldd	r20, Y+1	; 0x01
    1314:	e8 cf       	rjmp	.-48     	; 0x12e6 <Uart0_PutA+0x20>
    1316:	0f 90       	pop	r0
    1318:	0f 90       	pop	r0
    131a:	0f 90       	pop	r0
    131c:	0f 90       	pop	r0
    131e:	df 91       	pop	r29
    1320:	cf 91       	pop	r28
    1322:	1f 91       	pop	r17
    1324:	0f 91       	pop	r16
    1326:	ff 90       	pop	r15
    1328:	ef 90       	pop	r14
    132a:	df 90       	pop	r13
    132c:	cf 90       	pop	r12
    132e:	08 95       	ret

00001330 <Uart0_PutS>:
    1330:	cf 93       	push	r28
    1332:	df 93       	push	r29
    1334:	ec 01       	movw	r28, r24
    1336:	89 91       	ld	r24, Y+
    1338:	88 23       	and	r24, r24
    133a:	19 f0       	breq	.+6      	; 0x1342 <Uart0_PutS+0x12>
    133c:	0e 94 5f 09 	call	0x12be	; 0x12be <Uart0_PutC>
    1340:	fa cf       	rjmp	.-12     	; 0x1336 <Uart0_PutS+0x6>
    1342:	df 91       	pop	r29
    1344:	cf 91       	pop	r28
    1346:	08 95       	ret

00001348 <Uart0_GetC>:
    1348:	5f 9b       	sbis	0x0b, 7	; 11
    134a:	fe cf       	rjmp	.-4      	; 0x1348 <Uart0_GetC>
    134c:	2c b1       	in	r18, 0x0c	; 12
    134e:	fc 01       	movw	r30, r24
    1350:	20 83       	st	Z, r18
    1352:	08 95       	ret

00001354 <Uart0_GetA>:
    1354:	cf 92       	push	r12
    1356:	df 92       	push	r13
    1358:	ef 92       	push	r14
    135a:	ff 92       	push	r15
    135c:	0f 93       	push	r16
    135e:	1f 93       	push	r17
    1360:	cf 93       	push	r28
    1362:	df 93       	push	r29
    1364:	00 d0       	rcall	.+0      	; 0x1366 <Uart0_GetA+0x12>
    1366:	00 d0       	rcall	.+0      	; 0x1368 <Uart0_GetA+0x14>
    1368:	cd b7       	in	r28, 0x3d	; 61
    136a:	de b7       	in	r29, 0x3e	; 62
    136c:	8c 01       	movw	r16, r24
    136e:	c1 2c       	mov	r12, r1
    1370:	d1 2c       	mov	r13, r1
    1372:	76 01       	movw	r14, r12
    1374:	c8 01       	movw	r24, r16
    1376:	8c 0d       	add	r24, r12
    1378:	9d 1d       	adc	r25, r13
    137a:	c4 16       	cp	r12, r20
    137c:	d5 06       	cpc	r13, r21
    137e:	e6 06       	cpc	r14, r22
    1380:	f7 06       	cpc	r15, r23
    1382:	81 f0       	breq	.+32     	; 0x13a4 <Uart0_GetA+0x50>
    1384:	49 83       	std	Y+1, r20	; 0x01
    1386:	5a 83       	std	Y+2, r21	; 0x02
    1388:	6b 83       	std	Y+3, r22	; 0x03
    138a:	7c 83       	std	Y+4, r23	; 0x04
    138c:	0e 94 a4 09 	call	0x1348	; 0x1348 <Uart0_GetC>
    1390:	8f ef       	ldi	r24, 0xFF	; 255
    1392:	c8 1a       	sub	r12, r24
    1394:	d8 0a       	sbc	r13, r24
    1396:	e8 0a       	sbc	r14, r24
    1398:	f8 0a       	sbc	r15, r24
    139a:	7c 81       	ldd	r23, Y+4	; 0x04
    139c:	6b 81       	ldd	r22, Y+3	; 0x03
    139e:	5a 81       	ldd	r21, Y+2	; 0x02
    13a0:	49 81       	ldd	r20, Y+1	; 0x01
    13a2:	e8 cf       	rjmp	.-48     	; 0x1374 <Uart0_GetA+0x20>
    13a4:	0f 90       	pop	r0
    13a6:	0f 90       	pop	r0
    13a8:	0f 90       	pop	r0
    13aa:	0f 90       	pop	r0
    13ac:	df 91       	pop	r29
    13ae:	cf 91       	pop	r28
    13b0:	1f 91       	pop	r17
    13b2:	0f 91       	pop	r16
    13b4:	ff 90       	pop	r15
    13b6:	ef 90       	pop	r14
    13b8:	df 90       	pop	r13
    13ba:	cf 90       	pop	r12
    13bc:	08 95       	ret

000013be <Uart0_GetS>:
    13be:	ef 92       	push	r14
    13c0:	ff 92       	push	r15
    13c2:	0f 93       	push	r16
    13c4:	1f 93       	push	r17
    13c6:	cf 93       	push	r28
    13c8:	df 93       	push	r29
    13ca:	00 d0       	rcall	.+0      	; 0x13cc <Uart0_GetS+0xe>
    13cc:	00 d0       	rcall	.+0      	; 0x13ce <Uart0_GetS+0x10>
    13ce:	cd b7       	in	r28, 0x3d	; 61
    13d0:	de b7       	in	r29, 0x3e	; 62
    13d2:	7c 01       	movw	r14, r24
    13d4:	87 01       	movw	r16, r14
    13d6:	c7 01       	movw	r24, r14
    13d8:	49 83       	std	Y+1, r20	; 0x01
    13da:	5a 83       	std	Y+2, r21	; 0x02
    13dc:	6b 83       	std	Y+3, r22	; 0x03
    13de:	7c 83       	std	Y+4, r23	; 0x04
    13e0:	0e 94 a4 09 	call	0x1348	; 0x1348 <Uart0_GetC>
    13e4:	8f ef       	ldi	r24, 0xFF	; 255
    13e6:	e8 1a       	sub	r14, r24
    13e8:	f8 0a       	sbc	r15, r24
    13ea:	f8 01       	movw	r30, r16
    13ec:	80 81       	ld	r24, Z
    13ee:	49 81       	ldd	r20, Y+1	; 0x01
    13f0:	5a 81       	ldd	r21, Y+2	; 0x02
    13f2:	6b 81       	ldd	r22, Y+3	; 0x03
    13f4:	7c 81       	ldd	r23, Y+4	; 0x04
    13f6:	8a 30       	cpi	r24, 0x0A	; 10
    13f8:	69 f4       	brne	.+26     	; 0x1414 <Uart0_GetS+0x56>
    13fa:	f8 01       	movw	r30, r16
    13fc:	11 82       	std	Z+1, r1	; 0x01
    13fe:	0f 90       	pop	r0
    1400:	0f 90       	pop	r0
    1402:	0f 90       	pop	r0
    1404:	0f 90       	pop	r0
    1406:	df 91       	pop	r29
    1408:	cf 91       	pop	r28
    140a:	1f 91       	pop	r17
    140c:	0f 91       	pop	r16
    140e:	ff 90       	pop	r15
    1410:	ef 90       	pop	r14
    1412:	08 95       	ret
    1414:	41 50       	subi	r20, 0x01	; 1
    1416:	51 09       	sbc	r21, r1
    1418:	61 09       	sbc	r22, r1
    141a:	71 09       	sbc	r23, r1
    141c:	d9 f6       	brne	.-74     	; 0x13d4 <Uart0_GetS+0x16>
    141e:	ed cf       	rjmp	.-38     	; 0x13fa <Uart0_GetS+0x3c>

00001420 <Uart0_Get>:
    1420:	cf 92       	push	r12
    1422:	df 92       	push	r13
    1424:	ef 92       	push	r14
    1426:	ff 92       	push	r15
    1428:	cf 93       	push	r28
    142a:	df 93       	push	r29
    142c:	ec 01       	movw	r28, r24
    142e:	fb 01       	movw	r30, r22
    1430:	10 82       	st	Z, r1
    1432:	11 82       	std	Z+1, r1	; 0x01
    1434:	12 82       	std	Z+2, r1	; 0x02
    1436:	13 82       	std	Z+3, r1	; 0x03
    1438:	80 81       	ld	r24, Z
    143a:	91 81       	ldd	r25, Z+1	; 0x01
    143c:	a2 81       	ldd	r26, Z+2	; 0x02
    143e:	b3 81       	ldd	r27, Z+3	; 0x03
    1440:	82 17       	cp	r24, r18
    1442:	93 07       	cpc	r25, r19
    1444:	a4 07       	cpc	r26, r20
    1446:	b5 07       	cpc	r27, r21
    1448:	98 f4       	brcc	.+38     	; 0x1470 <Uart0_Get+0x50>
    144a:	5f 9b       	sbis	0x0b, 7	; 11
    144c:	11 c0       	rjmp	.+34     	; 0x1470 <Uart0_Get+0x50>
    144e:	6c 01       	movw	r12, r24
    1450:	7d 01       	movw	r14, r26
    1452:	6f ef       	ldi	r22, 0xFF	; 255
    1454:	c6 1a       	sub	r12, r22
    1456:	d6 0a       	sbc	r13, r22
    1458:	e6 0a       	sbc	r14, r22
    145a:	f6 0a       	sbc	r15, r22
    145c:	c0 82       	st	Z, r12
    145e:	d1 82       	std	Z+1, r13	; 0x01
    1460:	e2 82       	std	Z+2, r14	; 0x02
    1462:	f3 82       	std	Z+3, r15	; 0x03
    1464:	6c b1       	in	r22, 0x0c	; 12
    1466:	de 01       	movw	r26, r28
    1468:	a8 0f       	add	r26, r24
    146a:	b9 1f       	adc	r27, r25
    146c:	6c 93       	st	X, r22
    146e:	e4 cf       	rjmp	.-56     	; 0x1438 <Uart0_Get+0x18>
    1470:	df 91       	pop	r29
    1472:	cf 91       	pop	r28
    1474:	ff 90       	pop	r15
    1476:	ef 90       	pop	r14
    1478:	df 90       	pop	r13
    147a:	cf 90       	pop	r12
    147c:	08 95       	ret

0000147e <Uart1_Init>:
    147e:	cf 93       	push	r28
    1480:	df 93       	push	r29
    1482:	9b 01       	movw	r18, r22
    1484:	ac 01       	movw	r20, r24
    1486:	ca e9       	ldi	r28, 0x9A	; 154
    1488:	d0 e0       	ldi	r29, 0x00	; 0
    148a:	88 81       	ld	r24, Y
    148c:	87 7e       	andi	r24, 0xE7	; 231
    148e:	88 83       	st	Y, r24
    1490:	eb e9       	ldi	r30, 0x9B	; 155
    1492:	f0 e0       	ldi	r31, 0x00	; 0
    1494:	80 81       	ld	r24, Z
    1496:	82 60       	ori	r24, 0x02	; 2
    1498:	80 83       	st	Z, r24
    149a:	60 e8       	ldi	r22, 0x80	; 128
    149c:	74 e8       	ldi	r23, 0x84	; 132
    149e:	8e e1       	ldi	r24, 0x1E	; 30
    14a0:	90 e0       	ldi	r25, 0x00	; 0
    14a2:	0e 94 17 0c 	call	0x182e	; 0x182e <__udivmodsi4>
    14a6:	ba 01       	movw	r22, r20
    14a8:	a9 01       	movw	r20, r18
    14aa:	41 50       	subi	r20, 0x01	; 1
    14ac:	51 09       	sbc	r21, r1
    14ae:	61 09       	sbc	r22, r1
    14b0:	71 09       	sbc	r23, r1
    14b2:	bb 27       	eor	r27, r27
    14b4:	a7 2f       	mov	r26, r23
    14b6:	96 2f       	mov	r25, r22
    14b8:	85 2f       	mov	r24, r21
    14ba:	80 93 98 00 	sts	0x0098, r24	; 0x800098 <__TEXT_REGION_LENGTH__+0x7e0098>
    14be:	40 93 99 00 	sts	0x0099, r20	; 0x800099 <__TEXT_REGION_LENGTH__+0x7e0099>
    14c2:	ed e9       	ldi	r30, 0x9D	; 157
    14c4:	f0 e0       	ldi	r31, 0x00	; 0
    14c6:	80 81       	ld	r24, Z
    14c8:	84 60       	ori	r24, 0x04	; 4
    14ca:	80 83       	st	Z, r24
    14cc:	88 81       	ld	r24, Y
    14ce:	88 61       	ori	r24, 0x18	; 24
    14d0:	88 83       	st	Y, r24
    14d2:	df 91       	pop	r29
    14d4:	cf 91       	pop	r28
    14d6:	08 95       	ret

000014d8 <Uart1_CbRecv>:
    14d8:	90 93 7f 01 	sts	0x017F, r25	; 0x80017f <_Uart1ReceiveCallback+0x1>
    14dc:	80 93 7e 01 	sts	0x017E, r24	; 0x80017e <_Uart1ReceiveCallback>
    14e0:	89 2b       	or	r24, r25
    14e2:	39 f0       	breq	.+14     	; 0x14f2 <Uart1_CbRecv+0x1a>
    14e4:	80 91 9a 00 	lds	r24, 0x009A	; 0x80009a <__TEXT_REGION_LENGTH__+0x7e009a>
    14e8:	80 68       	ori	r24, 0x80	; 128
    14ea:	80 93 9a 00 	sts	0x009A, r24	; 0x80009a <__TEXT_REGION_LENGTH__+0x7e009a>
    14ee:	78 94       	sei
    14f0:	08 95       	ret
    14f2:	80 91 9a 00 	lds	r24, 0x009A	; 0x80009a <__TEXT_REGION_LENGTH__+0x7e009a>
    14f6:	8f 77       	andi	r24, 0x7F	; 127
    14f8:	80 93 9a 00 	sts	0x009A, r24	; 0x80009a <__TEXT_REGION_LENGTH__+0x7e009a>
    14fc:	08 95       	ret

000014fe <Uart1_PutC>:
    14fe:	90 91 9b 00 	lds	r25, 0x009B	; 0x80009b <__TEXT_REGION_LENGTH__+0x7e009b>
    1502:	95 ff       	sbrs	r25, 5
    1504:	fc cf       	rjmp	.-8      	; 0x14fe <Uart1_PutC>
    1506:	80 93 9c 00 	sts	0x009C, r24	; 0x80009c <__TEXT_REGION_LENGTH__+0x7e009c>
    150a:	08 95       	ret

0000150c <Uart1_PutA>:
    150c:	cf 92       	push	r12
    150e:	df 92       	push	r13
    1510:	ef 92       	push	r14
    1512:	ff 92       	push	r15
    1514:	0f 93       	push	r16
    1516:	1f 93       	push	r17
    1518:	cf 93       	push	r28
    151a:	df 93       	push	r29
    151c:	00 d0       	rcall	.+0      	; 0x151e <Uart1_PutA+0x12>
    151e:	00 d0       	rcall	.+0      	; 0x1520 <Uart1_PutA+0x14>
    1520:	cd b7       	in	r28, 0x3d	; 61
    1522:	de b7       	in	r29, 0x3e	; 62
    1524:	8c 01       	movw	r16, r24
    1526:	c1 2c       	mov	r12, r1
    1528:	d1 2c       	mov	r13, r1
    152a:	76 01       	movw	r14, r12
    152c:	c4 16       	cp	r12, r20
    152e:	d5 06       	cpc	r13, r21
    1530:	e6 06       	cpc	r14, r22
    1532:	f7 06       	cpc	r15, r23
    1534:	99 f0       	breq	.+38     	; 0x155c <Uart1_PutA+0x50>
    1536:	8f ef       	ldi	r24, 0xFF	; 255
    1538:	c8 1a       	sub	r12, r24
    153a:	d8 0a       	sbc	r13, r24
    153c:	e8 0a       	sbc	r14, r24
    153e:	f8 0a       	sbc	r15, r24
    1540:	f8 01       	movw	r30, r16
    1542:	81 91       	ld	r24, Z+
    1544:	8f 01       	movw	r16, r30
    1546:	49 83       	std	Y+1, r20	; 0x01
    1548:	5a 83       	std	Y+2, r21	; 0x02
    154a:	6b 83       	std	Y+3, r22	; 0x03
    154c:	7c 83       	std	Y+4, r23	; 0x04
    154e:	0e 94 7f 0a 	call	0x14fe	; 0x14fe <Uart1_PutC>
    1552:	7c 81       	ldd	r23, Y+4	; 0x04
    1554:	6b 81       	ldd	r22, Y+3	; 0x03
    1556:	5a 81       	ldd	r21, Y+2	; 0x02
    1558:	49 81       	ldd	r20, Y+1	; 0x01
    155a:	e8 cf       	rjmp	.-48     	; 0x152c <Uart1_PutA+0x20>
    155c:	0f 90       	pop	r0
    155e:	0f 90       	pop	r0
    1560:	0f 90       	pop	r0
    1562:	0f 90       	pop	r0
    1564:	df 91       	pop	r29
    1566:	cf 91       	pop	r28
    1568:	1f 91       	pop	r17
    156a:	0f 91       	pop	r16
    156c:	ff 90       	pop	r15
    156e:	ef 90       	pop	r14
    1570:	df 90       	pop	r13
    1572:	cf 90       	pop	r12
    1574:	08 95       	ret

00001576 <Uart1_PutS>:
    1576:	cf 93       	push	r28
    1578:	df 93       	push	r29
    157a:	ec 01       	movw	r28, r24
    157c:	89 91       	ld	r24, Y+
    157e:	88 23       	and	r24, r24
    1580:	19 f0       	breq	.+6      	; 0x1588 <Uart1_PutS+0x12>
    1582:	0e 94 7f 0a 	call	0x14fe	; 0x14fe <Uart1_PutC>
    1586:	fa cf       	rjmp	.-12     	; 0x157c <Uart1_PutS+0x6>
    1588:	df 91       	pop	r29
    158a:	cf 91       	pop	r28
    158c:	08 95       	ret

0000158e <Uart1_GetC>:
    158e:	20 91 9b 00 	lds	r18, 0x009B	; 0x80009b <__TEXT_REGION_LENGTH__+0x7e009b>
    1592:	27 ff       	sbrs	r18, 7
    1594:	fc cf       	rjmp	.-8      	; 0x158e <Uart1_GetC>
    1596:	20 91 9c 00 	lds	r18, 0x009C	; 0x80009c <__TEXT_REGION_LENGTH__+0x7e009c>
    159a:	fc 01       	movw	r30, r24
    159c:	20 83       	st	Z, r18
    159e:	08 95       	ret

000015a0 <Uart1_GetA>:
    15a0:	cf 92       	push	r12
    15a2:	df 92       	push	r13
    15a4:	ef 92       	push	r14
    15a6:	ff 92       	push	r15
    15a8:	0f 93       	push	r16
    15aa:	1f 93       	push	r17
    15ac:	cf 93       	push	r28
    15ae:	df 93       	push	r29
    15b0:	00 d0       	rcall	.+0      	; 0x15b2 <Uart1_GetA+0x12>
    15b2:	00 d0       	rcall	.+0      	; 0x15b4 <Uart1_GetA+0x14>
    15b4:	cd b7       	in	r28, 0x3d	; 61
    15b6:	de b7       	in	r29, 0x3e	; 62
    15b8:	8c 01       	movw	r16, r24
    15ba:	c1 2c       	mov	r12, r1
    15bc:	d1 2c       	mov	r13, r1
    15be:	76 01       	movw	r14, r12
    15c0:	c8 01       	movw	r24, r16
    15c2:	8c 0d       	add	r24, r12
    15c4:	9d 1d       	adc	r25, r13
    15c6:	c4 16       	cp	r12, r20
    15c8:	d5 06       	cpc	r13, r21
    15ca:	e6 06       	cpc	r14, r22
    15cc:	f7 06       	cpc	r15, r23
    15ce:	81 f0       	breq	.+32     	; 0x15f0 <Uart1_GetA+0x50>
    15d0:	49 83       	std	Y+1, r20	; 0x01
    15d2:	5a 83       	std	Y+2, r21	; 0x02
    15d4:	6b 83       	std	Y+3, r22	; 0x03
    15d6:	7c 83       	std	Y+4, r23	; 0x04
    15d8:	0e 94 c7 0a 	call	0x158e	; 0x158e <Uart1_GetC>
    15dc:	8f ef       	ldi	r24, 0xFF	; 255
    15de:	c8 1a       	sub	r12, r24
    15e0:	d8 0a       	sbc	r13, r24
    15e2:	e8 0a       	sbc	r14, r24
    15e4:	f8 0a       	sbc	r15, r24
    15e6:	7c 81       	ldd	r23, Y+4	; 0x04
    15e8:	6b 81       	ldd	r22, Y+3	; 0x03
    15ea:	5a 81       	ldd	r21, Y+2	; 0x02
    15ec:	49 81       	ldd	r20, Y+1	; 0x01
    15ee:	e8 cf       	rjmp	.-48     	; 0x15c0 <Uart1_GetA+0x20>
    15f0:	0f 90       	pop	r0
    15f2:	0f 90       	pop	r0
    15f4:	0f 90       	pop	r0
    15f6:	0f 90       	pop	r0
    15f8:	df 91       	pop	r29
    15fa:	cf 91       	pop	r28
    15fc:	1f 91       	pop	r17
    15fe:	0f 91       	pop	r16
    1600:	ff 90       	pop	r15
    1602:	ef 90       	pop	r14
    1604:	df 90       	pop	r13
    1606:	cf 90       	pop	r12
    1608:	08 95       	ret

0000160a <Uart1_GetS>:
    160a:	ef 92       	push	r14
    160c:	ff 92       	push	r15
    160e:	0f 93       	push	r16
    1610:	1f 93       	push	r17
    1612:	cf 93       	push	r28
    1614:	df 93       	push	r29
    1616:	00 d0       	rcall	.+0      	; 0x1618 <Uart1_GetS+0xe>
    1618:	00 d0       	rcall	.+0      	; 0x161a <Uart1_GetS+0x10>
    161a:	cd b7       	in	r28, 0x3d	; 61
    161c:	de b7       	in	r29, 0x3e	; 62
    161e:	7c 01       	movw	r14, r24
    1620:	87 01       	movw	r16, r14
    1622:	c7 01       	movw	r24, r14
    1624:	49 83       	std	Y+1, r20	; 0x01
    1626:	5a 83       	std	Y+2, r21	; 0x02
    1628:	6b 83       	std	Y+3, r22	; 0x03
    162a:	7c 83       	std	Y+4, r23	; 0x04
    162c:	0e 94 c7 0a 	call	0x158e	; 0x158e <Uart1_GetC>
    1630:	8f ef       	ldi	r24, 0xFF	; 255
    1632:	e8 1a       	sub	r14, r24
    1634:	f8 0a       	sbc	r15, r24
    1636:	f8 01       	movw	r30, r16
    1638:	80 81       	ld	r24, Z
    163a:	49 81       	ldd	r20, Y+1	; 0x01
    163c:	5a 81       	ldd	r21, Y+2	; 0x02
    163e:	6b 81       	ldd	r22, Y+3	; 0x03
    1640:	7c 81       	ldd	r23, Y+4	; 0x04
    1642:	8a 30       	cpi	r24, 0x0A	; 10
    1644:	69 f4       	brne	.+26     	; 0x1660 <Uart1_GetS+0x56>
    1646:	f8 01       	movw	r30, r16
    1648:	11 82       	std	Z+1, r1	; 0x01
    164a:	0f 90       	pop	r0
    164c:	0f 90       	pop	r0
    164e:	0f 90       	pop	r0
    1650:	0f 90       	pop	r0
    1652:	df 91       	pop	r29
    1654:	cf 91       	pop	r28
    1656:	1f 91       	pop	r17
    1658:	0f 91       	pop	r16
    165a:	ff 90       	pop	r15
    165c:	ef 90       	pop	r14
    165e:	08 95       	ret
    1660:	41 50       	subi	r20, 0x01	; 1
    1662:	51 09       	sbc	r21, r1
    1664:	61 09       	sbc	r22, r1
    1666:	71 09       	sbc	r23, r1
    1668:	d9 f6       	brne	.-74     	; 0x1620 <Uart1_GetS+0x16>
    166a:	ed cf       	rjmp	.-38     	; 0x1646 <Uart1_GetS+0x3c>

0000166c <Uart1_Get>:
    166c:	cf 92       	push	r12
    166e:	df 92       	push	r13
    1670:	ef 92       	push	r14
    1672:	ff 92       	push	r15
    1674:	cf 93       	push	r28
    1676:	df 93       	push	r29
    1678:	ec 01       	movw	r28, r24
    167a:	fb 01       	movw	r30, r22
    167c:	10 82       	st	Z, r1
    167e:	11 82       	std	Z+1, r1	; 0x01
    1680:	12 82       	std	Z+2, r1	; 0x02
    1682:	13 82       	std	Z+3, r1	; 0x03
    1684:	80 81       	ld	r24, Z
    1686:	91 81       	ldd	r25, Z+1	; 0x01
    1688:	a2 81       	ldd	r26, Z+2	; 0x02
    168a:	b3 81       	ldd	r27, Z+3	; 0x03
    168c:	82 17       	cp	r24, r18
    168e:	93 07       	cpc	r25, r19
    1690:	a4 07       	cpc	r26, r20
    1692:	b5 07       	cpc	r27, r21
    1694:	b0 f4       	brcc	.+44     	; 0x16c2 <Uart1_Get+0x56>
    1696:	60 91 9b 00 	lds	r22, 0x009B	; 0x80009b <__TEXT_REGION_LENGTH__+0x7e009b>
    169a:	67 ff       	sbrs	r22, 7
    169c:	12 c0       	rjmp	.+36     	; 0x16c2 <Uart1_Get+0x56>
    169e:	6c 01       	movw	r12, r24
    16a0:	7d 01       	movw	r14, r26
    16a2:	6f ef       	ldi	r22, 0xFF	; 255
    16a4:	c6 1a       	sub	r12, r22
    16a6:	d6 0a       	sbc	r13, r22
    16a8:	e6 0a       	sbc	r14, r22
    16aa:	f6 0a       	sbc	r15, r22
    16ac:	c0 82       	st	Z, r12
    16ae:	d1 82       	std	Z+1, r13	; 0x01
    16b0:	e2 82       	std	Z+2, r14	; 0x02
    16b2:	f3 82       	std	Z+3, r15	; 0x03
    16b4:	60 91 9c 00 	lds	r22, 0x009C	; 0x80009c <__TEXT_REGION_LENGTH__+0x7e009c>
    16b8:	de 01       	movw	r26, r28
    16ba:	a8 0f       	add	r26, r24
    16bc:	b9 1f       	adc	r27, r25
    16be:	6c 93       	st	X, r22
    16c0:	e1 cf       	rjmp	.-62     	; 0x1684 <Uart1_Get+0x18>
    16c2:	df 91       	pop	r29
    16c4:	cf 91       	pop	r28
    16c6:	ff 90       	pop	r15
    16c8:	ef 90       	pop	r14
    16ca:	df 90       	pop	r13
    16cc:	cf 90       	pop	r12
    16ce:	08 95       	ret

000016d0 <receive_command>:
    16d0:	cf 93       	push	r28
    16d2:	df 93       	push	r29
    16d4:	1f 92       	push	r1
    16d6:	cd b7       	in	r28, 0x3d	; 61
    16d8:	de b7       	in	r29, 0x3e	; 62
    16da:	89 83       	std	Y+1, r24	; 0x01
    16dc:	0e 94 7d 03 	call	0x6fa	; 0x6fa <Timer0_Stop>
    16e0:	0e 94 7b 03 	call	0x6f6	; 0x6f6 <Timer0_Reset>
    16e4:	10 92 83 01 	sts	0x0183, r1	; 0x800183 <boost_counter>
    16e8:	89 81       	ldd	r24, Y+1	; 0x01
    16ea:	8c 3f       	cpi	r24, 0xFC	; 252
    16ec:	b9 f0       	breq	.+46     	; 0x171c <receive_command+0x4c>
    16ee:	58 f4       	brcc	.+22     	; 0x1706 <receive_command+0x36>
    16f0:	8a 3f       	cpi	r24, 0xFA	; 250
    16f2:	41 f1       	breq	.+80     	; 0x1744 <receive_command+0x74>
    16f4:	28 f5       	brcc	.+74     	; 0x1740 <receive_command+0x70>
    16f6:	8a 3a       	cpi	r24, 0xAA	; 170
    16f8:	69 f5       	brne	.+90     	; 0x1754 <receive_command+0x84>
    16fa:	8a ea       	ldi	r24, 0xAA	; 170
    16fc:	0f 90       	pop	r0
    16fe:	df 91       	pop	r29
    1700:	cf 91       	pop	r28
    1702:	0c 94 5f 09 	jmp	0x12be	; 0x12be <Uart0_PutC>
    1706:	8e 3f       	cpi	r24, 0xFE	; 254
    1708:	a1 f0       	breq	.+40     	; 0x1732 <receive_command+0x62>
    170a:	40 f4       	brcc	.+16     	; 0x171c <receive_command+0x4c>
    170c:	8d ef       	ldi	r24, 0xFD	; 253
    170e:	80 93 82 01 	sts	0x0182, r24	; 0x800182 <mode>
    1712:	6f e9       	ldi	r22, 0x9F	; 159
    1714:	70 e0       	ldi	r23, 0x00	; 0
    1716:	80 e0       	ldi	r24, 0x00	; 0
    1718:	90 e0       	ldi	r25, 0x00	; 0
    171a:	06 c0       	rjmp	.+12     	; 0x1728 <receive_command+0x58>
    171c:	80 93 82 01 	sts	0x0182, r24	; 0x800182 <mode>
    1720:	6f e4       	ldi	r22, 0x4F	; 79
    1722:	70 e0       	ldi	r23, 0x00	; 0
    1724:	80 e0       	ldi	r24, 0x00	; 0
    1726:	90 e0       	ldi	r25, 0x00	; 0
    1728:	0f 90       	pop	r0
    172a:	df 91       	pop	r29
    172c:	cf 91       	pop	r28
    172e:	0c 94 87 04 	jmp	0x90e	; 0x90e <Timer0_SetCmpMatch>
    1732:	80 93 82 01 	sts	0x0182, r24	; 0x800182 <mode>
    1736:	67 e2       	ldi	r22, 0x27	; 39
    1738:	70 e0       	ldi	r23, 0x00	; 0
    173a:	80 e0       	ldi	r24, 0x00	; 0
    173c:	90 e0       	ldi	r25, 0x00	; 0
    173e:	f4 cf       	rjmp	.-24     	; 0x1728 <receive_command+0x58>
    1740:	49 e0       	ldi	r20, 0x09	; 9
    1742:	01 c0       	rjmp	.+2      	; 0x1746 <receive_command+0x76>
    1744:	45 e0       	ldi	r20, 0x05	; 5
    1746:	6f ef       	ldi	r22, 0xFF	; 255
    1748:	80 e0       	ldi	r24, 0x00	; 0
    174a:	0f 90       	pop	r0
    174c:	df 91       	pop	r29
    174e:	cf 91       	pop	r28
    1750:	0c 94 c7 00 	jmp	0x18e	; 0x18e <Gpio_Init>
    1754:	10 92 82 01 	sts	0x0182, r1	; 0x800182 <mode>
    1758:	0f 90       	pop	r0
    175a:	df 91       	pop	r29
    175c:	cf 91       	pop	r28
    175e:	08 95       	ret

00001760 <main>:
    1760:	49 e0       	ldi	r20, 0x09	; 9
    1762:	6f ef       	ldi	r22, 0xFF	; 255
    1764:	80 e0       	ldi	r24, 0x00	; 0
    1766:	0e 94 c7 00 	call	0x18e	; 0x18e <Gpio_Init>
    176a:	89 e0       	ldi	r24, 0x09	; 9
    176c:	0e 94 96 00 	call	0x12c	; 0x12c <Adc0_Init>
    1770:	80 e0       	ldi	r24, 0x00	; 0
    1772:	0e 94 ae 00 	call	0x15c	; 0x15c <Adc0_SetChannel>
    1776:	4f e4       	ldi	r20, 0x4F	; 79
    1778:	50 e0       	ldi	r21, 0x00	; 0
    177a:	60 e0       	ldi	r22, 0x00	; 0
    177c:	70 e0       	ldi	r23, 0x00	; 0
    177e:	82 e0       	ldi	r24, 0x02	; 2
    1780:	0e 94 42 04 	call	0x884	; 0x884 <Timer0_Init>
    1784:	0e 94 7d 03 	call	0x6fa	; 0x6fa <Timer0_Stop>
    1788:	60 e8       	ldi	r22, 0x80	; 128
    178a:	74 e8       	ldi	r23, 0x84	; 132
    178c:	8e e1       	ldi	r24, 0x1E	; 30
    178e:	90 e0       	ldi	r25, 0x00	; 0
    1790:	0e 94 32 09 	call	0x1264	; 0x1264 <Uart0_Init>
    1794:	88 e6       	ldi	r24, 0x68	; 104
    1796:	9b e0       	ldi	r25, 0x0B	; 11
    1798:	0e 94 54 09 	call	0x12a8	; 0x12a8 <Uart0_CbRecv>
    179c:	06 b6       	in	r0, 0x36	; 54
    179e:	01 fe       	sbrs	r0, 1
    17a0:	fd cf       	rjmp	.-6      	; 0x179c <main+0x3c>
    17a2:	86 b7       	in	r24, 0x36	; 54
    17a4:	82 60       	ori	r24, 0x02	; 2
    17a6:	86 bf       	out	0x36, r24	; 54
    17a8:	80 91 82 01 	lds	r24, 0x0182	; 0x800182 <mode>
    17ac:	8d 3f       	cpi	r24, 0xFD	; 253
    17ae:	51 f0       	breq	.+20     	; 0x17c4 <main+0x64>
    17b0:	20 f4       	brcc	.+8      	; 0x17ba <main+0x5a>
    17b2:	8c 3f       	cpi	r24, 0xFC	; 252
    17b4:	99 f7       	brne	.-26     	; 0x179c <main+0x3c>
    17b6:	36 9a       	sbi	0x06, 6	; 6
    17b8:	13 c0       	rjmp	.+38     	; 0x17e0 <main+0x80>
    17ba:	8e 3f       	cpi	r24, 0xFE	; 254
    17bc:	01 f1       	breq	.+64     	; 0x17fe <main+0x9e>
    17be:	8f 3f       	cpi	r24, 0xFF	; 255
    17c0:	d1 f0       	breq	.+52     	; 0x17f6 <main+0x96>
    17c2:	ec cf       	rjmp	.-40     	; 0x179c <main+0x3c>
    17c4:	36 9a       	sbi	0x06, 6	; 6
    17c6:	36 99       	sbic	0x06, 6	; 6
    17c8:	fe cf       	rjmp	.-4      	; 0x17c6 <main+0x66>
    17ca:	5d 9b       	sbis	0x0b, 5	; 11
    17cc:	fe cf       	rjmp	.-4      	; 0x17ca <main+0x6a>
    17ce:	84 b1       	in	r24, 0x04	; 4
    17d0:	95 b1       	in	r25, 0x05	; 5
    17d2:	8c b9       	out	0x0c, r24	; 12
    17d4:	5d 9b       	sbis	0x0b, 5	; 11
    17d6:	fe cf       	rjmp	.-4      	; 0x17d4 <main+0x74>
    17d8:	84 b1       	in	r24, 0x04	; 4
    17da:	95 b1       	in	r25, 0x05	; 5
    17dc:	9c b9       	out	0x0c, r25	; 12
    17de:	de cf       	rjmp	.-68     	; 0x179c <main+0x3c>
    17e0:	36 99       	sbic	0x06, 6	; 6
    17e2:	fe cf       	rjmp	.-4      	; 0x17e0 <main+0x80>
    17e4:	5d 9b       	sbis	0x0b, 5	; 11
    17e6:	fe cf       	rjmp	.-4      	; 0x17e4 <main+0x84>
    17e8:	84 b1       	in	r24, 0x04	; 4
    17ea:	95 b1       	in	r25, 0x05	; 5
    17ec:	96 95       	lsr	r25
    17ee:	87 95       	ror	r24
    17f0:	96 95       	lsr	r25
    17f2:	87 95       	ror	r24
    17f4:	1a c0       	rjmp	.+52     	; 0x182a <main+0xca>
    17f6:	5d 9b       	sbis	0x0b, 5	; 11
    17f8:	fe cf       	rjmp	.-4      	; 0x17f6 <main+0x96>
    17fa:	89 b3       	in	r24, 0x19	; 25
    17fc:	16 c0       	rjmp	.+44     	; 0x182a <main+0xca>
    17fe:	29 b3       	in	r18, 0x19	; 25
    1800:	90 91 84 01 	lds	r25, 0x0184	; 0x800184 <boost_data>
    1804:	30 e1       	ldi	r19, 0x10	; 16
    1806:	93 9f       	mul	r25, r19
    1808:	c0 01       	movw	r24, r0
    180a:	11 24       	eor	r1, r1
    180c:	92 2f       	mov	r25, r18
    180e:	9f 70       	andi	r25, 0x0F	; 15
    1810:	89 2b       	or	r24, r25
    1812:	80 93 84 01 	sts	0x0184, r24	; 0x800184 <boost_data>
    1816:	90 91 83 01 	lds	r25, 0x0183	; 0x800183 <boost_counter>
    181a:	21 e0       	ldi	r18, 0x01	; 1
    181c:	29 0f       	add	r18, r25
    181e:	20 93 83 01 	sts	0x0183, r18	; 0x800183 <boost_counter>
    1822:	90 ff       	sbrs	r25, 0
    1824:	bb cf       	rjmp	.-138    	; 0x179c <main+0x3c>
    1826:	5d 9b       	sbis	0x0b, 5	; 11
    1828:	fe cf       	rjmp	.-4      	; 0x1826 <main+0xc6>
    182a:	8c b9       	out	0x0c, r24	; 12
    182c:	b7 cf       	rjmp	.-146    	; 0x179c <main+0x3c>

0000182e <__udivmodsi4>:
    182e:	a1 e2       	ldi	r26, 0x21	; 33
    1830:	1a 2e       	mov	r1, r26
    1832:	aa 1b       	sub	r26, r26
    1834:	bb 1b       	sub	r27, r27
    1836:	fd 01       	movw	r30, r26
    1838:	0d c0       	rjmp	.+26     	; 0x1854 <__udivmodsi4_ep>

0000183a <__udivmodsi4_loop>:
    183a:	aa 1f       	adc	r26, r26
    183c:	bb 1f       	adc	r27, r27
    183e:	ee 1f       	adc	r30, r30
    1840:	ff 1f       	adc	r31, r31
    1842:	a2 17       	cp	r26, r18
    1844:	b3 07       	cpc	r27, r19
    1846:	e4 07       	cpc	r30, r20
    1848:	f5 07       	cpc	r31, r21
    184a:	20 f0       	brcs	.+8      	; 0x1854 <__udivmodsi4_ep>
    184c:	a2 1b       	sub	r26, r18
    184e:	b3 0b       	sbc	r27, r19
    1850:	e4 0b       	sbc	r30, r20
    1852:	f5 0b       	sbc	r31, r21

00001854 <__udivmodsi4_ep>:
    1854:	66 1f       	adc	r22, r22
    1856:	77 1f       	adc	r23, r23
    1858:	88 1f       	adc	r24, r24
    185a:	99 1f       	adc	r25, r25
    185c:	1a 94       	dec	r1
    185e:	69 f7       	brne	.-38     	; 0x183a <__udivmodsi4_loop>
    1860:	60 95       	com	r22
    1862:	70 95       	com	r23
    1864:	80 95       	com	r24
    1866:	90 95       	com	r25
    1868:	9b 01       	movw	r18, r22
    186a:	ac 01       	movw	r20, r24
    186c:	bd 01       	movw	r22, r26
    186e:	cf 01       	movw	r24, r30
    1870:	08 95       	ret

00001872 <__fixunssfsi>:
    1872:	0e 94 ad 0c 	call	0x195a	; 0x195a <__fp_splitA>
    1876:	88 f0       	brcs	.+34     	; 0x189a <__fixunssfsi+0x28>
    1878:	9f 57       	subi	r25, 0x7F	; 127
    187a:	98 f0       	brcs	.+38     	; 0x18a2 <__fixunssfsi+0x30>
    187c:	b9 2f       	mov	r27, r25
    187e:	99 27       	eor	r25, r25
    1880:	b7 51       	subi	r27, 0x17	; 23
    1882:	b0 f0       	brcs	.+44     	; 0x18b0 <__fixunssfsi+0x3e>
    1884:	e1 f0       	breq	.+56     	; 0x18be <__fixunssfsi+0x4c>
    1886:	66 0f       	add	r22, r22
    1888:	77 1f       	adc	r23, r23
    188a:	88 1f       	adc	r24, r24
    188c:	99 1f       	adc	r25, r25
    188e:	1a f0       	brmi	.+6      	; 0x1896 <__fixunssfsi+0x24>
    1890:	ba 95       	dec	r27
    1892:	c9 f7       	brne	.-14     	; 0x1886 <__fixunssfsi+0x14>
    1894:	14 c0       	rjmp	.+40     	; 0x18be <__fixunssfsi+0x4c>
    1896:	b1 30       	cpi	r27, 0x01	; 1
    1898:	91 f0       	breq	.+36     	; 0x18be <__fixunssfsi+0x4c>
    189a:	0e 94 c7 0c 	call	0x198e	; 0x198e <__fp_zero>
    189e:	b1 e0       	ldi	r27, 0x01	; 1
    18a0:	08 95       	ret
    18a2:	0c 94 c7 0c 	jmp	0x198e	; 0x198e <__fp_zero>
    18a6:	67 2f       	mov	r22, r23
    18a8:	78 2f       	mov	r23, r24
    18aa:	88 27       	eor	r24, r24
    18ac:	b8 5f       	subi	r27, 0xF8	; 248
    18ae:	39 f0       	breq	.+14     	; 0x18be <__fixunssfsi+0x4c>
    18b0:	b9 3f       	cpi	r27, 0xF9	; 249
    18b2:	cc f3       	brlt	.-14     	; 0x18a6 <__fixunssfsi+0x34>
    18b4:	86 95       	lsr	r24
    18b6:	77 95       	ror	r23
    18b8:	67 95       	ror	r22
    18ba:	b3 95       	inc	r27
    18bc:	d9 f7       	brne	.-10     	; 0x18b4 <__fixunssfsi+0x42>
    18be:	3e f4       	brtc	.+14     	; 0x18ce <__fixunssfsi+0x5c>
    18c0:	90 95       	com	r25
    18c2:	80 95       	com	r24
    18c4:	70 95       	com	r23
    18c6:	61 95       	neg	r22
    18c8:	7f 4f       	sbci	r23, 0xFF	; 255
    18ca:	8f 4f       	sbci	r24, 0xFF	; 255
    18cc:	9f 4f       	sbci	r25, 0xFF	; 255
    18ce:	08 95       	ret

000018d0 <__floatunsisf>:
    18d0:	e8 94       	clt
    18d2:	09 c0       	rjmp	.+18     	; 0x18e6 <__floatsisf+0x12>

000018d4 <__floatsisf>:
    18d4:	97 fb       	bst	r25, 7
    18d6:	3e f4       	brtc	.+14     	; 0x18e6 <__floatsisf+0x12>
    18d8:	90 95       	com	r25
    18da:	80 95       	com	r24
    18dc:	70 95       	com	r23
    18de:	61 95       	neg	r22
    18e0:	7f 4f       	sbci	r23, 0xFF	; 255
    18e2:	8f 4f       	sbci	r24, 0xFF	; 255
    18e4:	9f 4f       	sbci	r25, 0xFF	; 255
    18e6:	99 23       	and	r25, r25
    18e8:	a9 f0       	breq	.+42     	; 0x1914 <__floatsisf+0x40>
    18ea:	f9 2f       	mov	r31, r25
    18ec:	96 e9       	ldi	r25, 0x96	; 150
    18ee:	bb 27       	eor	r27, r27
    18f0:	93 95       	inc	r25
    18f2:	f6 95       	lsr	r31
    18f4:	87 95       	ror	r24
    18f6:	77 95       	ror	r23
    18f8:	67 95       	ror	r22
    18fa:	b7 95       	ror	r27
    18fc:	f1 11       	cpse	r31, r1
    18fe:	f8 cf       	rjmp	.-16     	; 0x18f0 <__floatsisf+0x1c>
    1900:	fa f4       	brpl	.+62     	; 0x1940 <__floatsisf+0x6c>
    1902:	bb 0f       	add	r27, r27
    1904:	11 f4       	brne	.+4      	; 0x190a <__floatsisf+0x36>
    1906:	60 ff       	sbrs	r22, 0
    1908:	1b c0       	rjmp	.+54     	; 0x1940 <__floatsisf+0x6c>
    190a:	6f 5f       	subi	r22, 0xFF	; 255
    190c:	7f 4f       	sbci	r23, 0xFF	; 255
    190e:	8f 4f       	sbci	r24, 0xFF	; 255
    1910:	9f 4f       	sbci	r25, 0xFF	; 255
    1912:	16 c0       	rjmp	.+44     	; 0x1940 <__floatsisf+0x6c>
    1914:	88 23       	and	r24, r24
    1916:	11 f0       	breq	.+4      	; 0x191c <__floatsisf+0x48>
    1918:	96 e9       	ldi	r25, 0x96	; 150
    191a:	11 c0       	rjmp	.+34     	; 0x193e <__floatsisf+0x6a>
    191c:	77 23       	and	r23, r23
    191e:	21 f0       	breq	.+8      	; 0x1928 <__floatsisf+0x54>
    1920:	9e e8       	ldi	r25, 0x8E	; 142
    1922:	87 2f       	mov	r24, r23
    1924:	76 2f       	mov	r23, r22
    1926:	05 c0       	rjmp	.+10     	; 0x1932 <__floatsisf+0x5e>
    1928:	66 23       	and	r22, r22
    192a:	71 f0       	breq	.+28     	; 0x1948 <__floatsisf+0x74>
    192c:	96 e8       	ldi	r25, 0x86	; 134
    192e:	86 2f       	mov	r24, r22
    1930:	70 e0       	ldi	r23, 0x00	; 0
    1932:	60 e0       	ldi	r22, 0x00	; 0
    1934:	2a f0       	brmi	.+10     	; 0x1940 <__floatsisf+0x6c>
    1936:	9a 95       	dec	r25
    1938:	66 0f       	add	r22, r22
    193a:	77 1f       	adc	r23, r23
    193c:	88 1f       	adc	r24, r24
    193e:	da f7       	brpl	.-10     	; 0x1936 <__floatsisf+0x62>
    1940:	88 0f       	add	r24, r24
    1942:	96 95       	lsr	r25
    1944:	87 95       	ror	r24
    1946:	97 f9       	bld	r25, 7
    1948:	08 95       	ret

0000194a <__fp_split3>:
    194a:	57 fd       	sbrc	r21, 7
    194c:	90 58       	subi	r25, 0x80	; 128
    194e:	44 0f       	add	r20, r20
    1950:	55 1f       	adc	r21, r21
    1952:	59 f0       	breq	.+22     	; 0x196a <__fp_splitA+0x10>
    1954:	5f 3f       	cpi	r21, 0xFF	; 255
    1956:	71 f0       	breq	.+28     	; 0x1974 <__fp_splitA+0x1a>
    1958:	47 95       	ror	r20

0000195a <__fp_splitA>:
    195a:	88 0f       	add	r24, r24
    195c:	97 fb       	bst	r25, 7
    195e:	99 1f       	adc	r25, r25
    1960:	61 f0       	breq	.+24     	; 0x197a <__fp_splitA+0x20>
    1962:	9f 3f       	cpi	r25, 0xFF	; 255
    1964:	79 f0       	breq	.+30     	; 0x1984 <__fp_splitA+0x2a>
    1966:	87 95       	ror	r24
    1968:	08 95       	ret
    196a:	12 16       	cp	r1, r18
    196c:	13 06       	cpc	r1, r19
    196e:	14 06       	cpc	r1, r20
    1970:	55 1f       	adc	r21, r21
    1972:	f2 cf       	rjmp	.-28     	; 0x1958 <__fp_split3+0xe>
    1974:	46 95       	lsr	r20
    1976:	f1 df       	rcall	.-30     	; 0x195a <__fp_splitA>
    1978:	08 c0       	rjmp	.+16     	; 0x198a <__fp_splitA+0x30>
    197a:	16 16       	cp	r1, r22
    197c:	17 06       	cpc	r1, r23
    197e:	18 06       	cpc	r1, r24
    1980:	99 1f       	adc	r25, r25
    1982:	f1 cf       	rjmp	.-30     	; 0x1966 <__fp_splitA+0xc>
    1984:	86 95       	lsr	r24
    1986:	71 05       	cpc	r23, r1
    1988:	61 05       	cpc	r22, r1
    198a:	08 94       	sec
    198c:	08 95       	ret

0000198e <__fp_zero>:
    198e:	e8 94       	clt

00001990 <__fp_szero>:
    1990:	bb 27       	eor	r27, r27
    1992:	66 27       	eor	r22, r22
    1994:	77 27       	eor	r23, r23
    1996:	cb 01       	movw	r24, r22
    1998:	97 f9       	bld	r25, 7
    199a:	08 95       	ret

0000199c <__mulsf3>:
    199c:	0e 94 e1 0c 	call	0x19c2	; 0x19c2 <__mulsf3x>
    19a0:	0c 94 52 0d 	jmp	0x1aa4	; 0x1aa4 <__fp_round>
    19a4:	0e 94 44 0d 	call	0x1a88	; 0x1a88 <__fp_pscA>
    19a8:	38 f0       	brcs	.+14     	; 0x19b8 <__mulsf3+0x1c>
    19aa:	0e 94 4b 0d 	call	0x1a96	; 0x1a96 <__fp_pscB>
    19ae:	20 f0       	brcs	.+8      	; 0x19b8 <__mulsf3+0x1c>
    19b0:	95 23       	and	r25, r21
    19b2:	11 f0       	breq	.+4      	; 0x19b8 <__mulsf3+0x1c>
    19b4:	0c 94 3b 0d 	jmp	0x1a76	; 0x1a76 <__fp_inf>
    19b8:	0c 94 41 0d 	jmp	0x1a82	; 0x1a82 <__fp_nan>
    19bc:	11 24       	eor	r1, r1
    19be:	0c 94 c8 0c 	jmp	0x1990	; 0x1990 <__fp_szero>

000019c2 <__mulsf3x>:
    19c2:	0e 94 a5 0c 	call	0x194a	; 0x194a <__fp_split3>
    19c6:	70 f3       	brcs	.-36     	; 0x19a4 <__mulsf3+0x8>

000019c8 <__mulsf3_pse>:
    19c8:	95 9f       	mul	r25, r21
    19ca:	c1 f3       	breq	.-16     	; 0x19bc <__mulsf3+0x20>
    19cc:	95 0f       	add	r25, r21
    19ce:	50 e0       	ldi	r21, 0x00	; 0
    19d0:	55 1f       	adc	r21, r21
    19d2:	62 9f       	mul	r22, r18
    19d4:	f0 01       	movw	r30, r0
    19d6:	72 9f       	mul	r23, r18
    19d8:	bb 27       	eor	r27, r27
    19da:	f0 0d       	add	r31, r0
    19dc:	b1 1d       	adc	r27, r1
    19de:	63 9f       	mul	r22, r19
    19e0:	aa 27       	eor	r26, r26
    19e2:	f0 0d       	add	r31, r0
    19e4:	b1 1d       	adc	r27, r1
    19e6:	aa 1f       	adc	r26, r26
    19e8:	64 9f       	mul	r22, r20
    19ea:	66 27       	eor	r22, r22
    19ec:	b0 0d       	add	r27, r0
    19ee:	a1 1d       	adc	r26, r1
    19f0:	66 1f       	adc	r22, r22
    19f2:	82 9f       	mul	r24, r18
    19f4:	22 27       	eor	r18, r18
    19f6:	b0 0d       	add	r27, r0
    19f8:	a1 1d       	adc	r26, r1
    19fa:	62 1f       	adc	r22, r18
    19fc:	73 9f       	mul	r23, r19
    19fe:	b0 0d       	add	r27, r0
    1a00:	a1 1d       	adc	r26, r1
    1a02:	62 1f       	adc	r22, r18
    1a04:	83 9f       	mul	r24, r19
    1a06:	a0 0d       	add	r26, r0
    1a08:	61 1d       	adc	r22, r1
    1a0a:	22 1f       	adc	r18, r18
    1a0c:	74 9f       	mul	r23, r20
    1a0e:	33 27       	eor	r19, r19
    1a10:	a0 0d       	add	r26, r0
    1a12:	61 1d       	adc	r22, r1
    1a14:	23 1f       	adc	r18, r19
    1a16:	84 9f       	mul	r24, r20
    1a18:	60 0d       	add	r22, r0
    1a1a:	21 1d       	adc	r18, r1
    1a1c:	82 2f       	mov	r24, r18
    1a1e:	76 2f       	mov	r23, r22
    1a20:	6a 2f       	mov	r22, r26
    1a22:	11 24       	eor	r1, r1
    1a24:	9f 57       	subi	r25, 0x7F	; 127
    1a26:	50 40       	sbci	r21, 0x00	; 0
    1a28:	9a f0       	brmi	.+38     	; 0x1a50 <__mulsf3_pse+0x88>
    1a2a:	f1 f0       	breq	.+60     	; 0x1a68 <__mulsf3_pse+0xa0>
    1a2c:	88 23       	and	r24, r24
    1a2e:	4a f0       	brmi	.+18     	; 0x1a42 <__mulsf3_pse+0x7a>
    1a30:	ee 0f       	add	r30, r30
    1a32:	ff 1f       	adc	r31, r31
    1a34:	bb 1f       	adc	r27, r27
    1a36:	66 1f       	adc	r22, r22
    1a38:	77 1f       	adc	r23, r23
    1a3a:	88 1f       	adc	r24, r24
    1a3c:	91 50       	subi	r25, 0x01	; 1
    1a3e:	50 40       	sbci	r21, 0x00	; 0
    1a40:	a9 f7       	brne	.-22     	; 0x1a2c <__mulsf3_pse+0x64>
    1a42:	9e 3f       	cpi	r25, 0xFE	; 254
    1a44:	51 05       	cpc	r21, r1
    1a46:	80 f0       	brcs	.+32     	; 0x1a68 <__mulsf3_pse+0xa0>
    1a48:	0c 94 3b 0d 	jmp	0x1a76	; 0x1a76 <__fp_inf>
    1a4c:	0c 94 c8 0c 	jmp	0x1990	; 0x1990 <__fp_szero>
    1a50:	5f 3f       	cpi	r21, 0xFF	; 255
    1a52:	e4 f3       	brlt	.-8      	; 0x1a4c <__mulsf3_pse+0x84>
    1a54:	98 3e       	cpi	r25, 0xE8	; 232
    1a56:	d4 f3       	brlt	.-12     	; 0x1a4c <__mulsf3_pse+0x84>
    1a58:	86 95       	lsr	r24
    1a5a:	77 95       	ror	r23
    1a5c:	67 95       	ror	r22
    1a5e:	b7 95       	ror	r27
    1a60:	f7 95       	ror	r31
    1a62:	e7 95       	ror	r30
    1a64:	9f 5f       	subi	r25, 0xFF	; 255
    1a66:	c1 f7       	brne	.-16     	; 0x1a58 <__mulsf3_pse+0x90>
    1a68:	fe 2b       	or	r31, r30
    1a6a:	88 0f       	add	r24, r24
    1a6c:	91 1d       	adc	r25, r1
    1a6e:	96 95       	lsr	r25
    1a70:	87 95       	ror	r24
    1a72:	97 f9       	bld	r25, 7
    1a74:	08 95       	ret

00001a76 <__fp_inf>:
    1a76:	97 f9       	bld	r25, 7
    1a78:	9f 67       	ori	r25, 0x7F	; 127
    1a7a:	80 e8       	ldi	r24, 0x80	; 128
    1a7c:	70 e0       	ldi	r23, 0x00	; 0
    1a7e:	60 e0       	ldi	r22, 0x00	; 0
    1a80:	08 95       	ret

00001a82 <__fp_nan>:
    1a82:	9f ef       	ldi	r25, 0xFF	; 255
    1a84:	80 ec       	ldi	r24, 0xC0	; 192
    1a86:	08 95       	ret

00001a88 <__fp_pscA>:
    1a88:	00 24       	eor	r0, r0
    1a8a:	0a 94       	dec	r0
    1a8c:	16 16       	cp	r1, r22
    1a8e:	17 06       	cpc	r1, r23
    1a90:	18 06       	cpc	r1, r24
    1a92:	09 06       	cpc	r0, r25
    1a94:	08 95       	ret

00001a96 <__fp_pscB>:
    1a96:	00 24       	eor	r0, r0
    1a98:	0a 94       	dec	r0
    1a9a:	12 16       	cp	r1, r18
    1a9c:	13 06       	cpc	r1, r19
    1a9e:	14 06       	cpc	r1, r20
    1aa0:	05 06       	cpc	r0, r21
    1aa2:	08 95       	ret

00001aa4 <__fp_round>:
    1aa4:	09 2e       	mov	r0, r25
    1aa6:	03 94       	inc	r0
    1aa8:	00 0c       	add	r0, r0
    1aaa:	11 f4       	brne	.+4      	; 0x1ab0 <__fp_round+0xc>
    1aac:	88 23       	and	r24, r24
    1aae:	52 f0       	brmi	.+20     	; 0x1ac4 <__fp_round+0x20>
    1ab0:	bb 0f       	add	r27, r27
    1ab2:	40 f4       	brcc	.+16     	; 0x1ac4 <__fp_round+0x20>
    1ab4:	bf 2b       	or	r27, r31
    1ab6:	11 f4       	brne	.+4      	; 0x1abc <__fp_round+0x18>
    1ab8:	60 ff       	sbrs	r22, 0
    1aba:	04 c0       	rjmp	.+8      	; 0x1ac4 <__fp_round+0x20>
    1abc:	6f 5f       	subi	r22, 0xFF	; 255
    1abe:	7f 4f       	sbci	r23, 0xFF	; 255
    1ac0:	8f 4f       	sbci	r24, 0xFF	; 255
    1ac2:	9f 4f       	sbci	r25, 0xFF	; 255
    1ac4:	08 95       	ret

00001ac6 <_exit>:
    1ac6:	f8 94       	cli

00001ac8 <__stop_program>:
    1ac8:	ff cf       	rjmp	.-2      	; 0x1ac8 <__stop_program>
